ARM GAS  C:\Users\kenji\AppData\Local\Temp\cc5l7BVQ.s 			page 1


   1              		.cpu cortex-m7
   2              		.eabi_attribute 28, 1
   3              		.eabi_attribute 20, 1
   4              		.eabi_attribute 21, 1
   5              		.eabi_attribute 23, 3
   6              		.eabi_attribute 24, 1
   7              		.eabi_attribute 25, 1
   8              		.eabi_attribute 26, 1
   9              		.eabi_attribute 30, 2
  10              		.eabi_attribute 34, 1
  11              		.eabi_attribute 18, 4
  12              		.file	"PatchSettings.cpp"
  13              		.text
  14              	.Ltext0:
  15              		.cfi_sections	.debug_frame
  16              		.section	.rodata._ZNSt7__cxx1112basic_stringIcSt11char_traitsIcESaIcEE12_M_constructIPKcEEvT_S8_St
  17              		.align	2
  18              	.LC0:
  19 0000 62617369 		.ascii	"basic_string::_M_construct null not valid\000"
  19      635F7374 
  19      72696E67 
  19      3A3A5F4D 
  19      5F636F6E 
  20              		.section	.text._ZNSt7__cxx1112basic_stringIcSt11char_traitsIcESaIcEE12_M_constructIPKcEEvT_S8_St20
  21              		.align	1
  22              		.p2align 2,,3
  23              		.arch armv7e-m
  24              		.syntax unified
  25              		.thumb
  26              		.thumb_func
  27              		.fpu fpv5-d16
  29              	_ZNSt7__cxx1112basic_stringIcSt11char_traitsIcESaIcEE12_M_constructIPKcEEvT_S8_St20forward_iterator
  30              	.LVL0:
  31              	.LFB3691:
  32              		.file 1 "c:\\program files\\daisytoolchain\\arm-none-eabi\\include\\c++\\10.2.1\\bits\\basic_strin
   1:c:\program files\daisytoolchain\arm-none-eabi\include\c++\10.2.1\bits\basic_string.tcc **** // Components for manipulating sequences of characters -*- C++ -*-
   2:c:\program files\daisytoolchain\arm-none-eabi\include\c++\10.2.1\bits\basic_string.tcc **** 
   3:c:\program files\daisytoolchain\arm-none-eabi\include\c++\10.2.1\bits\basic_string.tcc **** // Copyright (C) 1997-2020 Free Software Foundation, Inc.
   4:c:\program files\daisytoolchain\arm-none-eabi\include\c++\10.2.1\bits\basic_string.tcc **** //
   5:c:\program files\daisytoolchain\arm-none-eabi\include\c++\10.2.1\bits\basic_string.tcc **** // This file is part of the GNU ISO C++ Library.  This library is free
   6:c:\program files\daisytoolchain\arm-none-eabi\include\c++\10.2.1\bits\basic_string.tcc **** // software; you can redistribute it and/or modify it under the
   7:c:\program files\daisytoolchain\arm-none-eabi\include\c++\10.2.1\bits\basic_string.tcc **** // terms of the GNU General Public License as published by the
   8:c:\program files\daisytoolchain\arm-none-eabi\include\c++\10.2.1\bits\basic_string.tcc **** // Free Software Foundation; either version 3, or (at your option)
   9:c:\program files\daisytoolchain\arm-none-eabi\include\c++\10.2.1\bits\basic_string.tcc **** // any later version.
  10:c:\program files\daisytoolchain\arm-none-eabi\include\c++\10.2.1\bits\basic_string.tcc **** 
  11:c:\program files\daisytoolchain\arm-none-eabi\include\c++\10.2.1\bits\basic_string.tcc **** // This library is distributed in the hope that it will be useful,
  12:c:\program files\daisytoolchain\arm-none-eabi\include\c++\10.2.1\bits\basic_string.tcc **** // but WITHOUT ANY WARRANTY; without even the implied warranty of
  13:c:\program files\daisytoolchain\arm-none-eabi\include\c++\10.2.1\bits\basic_string.tcc **** // MERCHANTABILITY or FITNESS FOR A PARTICULAR PURPOSE.  See the
  14:c:\program files\daisytoolchain\arm-none-eabi\include\c++\10.2.1\bits\basic_string.tcc **** // GNU General Public License for more details.
  15:c:\program files\daisytoolchain\arm-none-eabi\include\c++\10.2.1\bits\basic_string.tcc **** 
  16:c:\program files\daisytoolchain\arm-none-eabi\include\c++\10.2.1\bits\basic_string.tcc **** // Under Section 7 of GPL version 3, you are granted additional
  17:c:\program files\daisytoolchain\arm-none-eabi\include\c++\10.2.1\bits\basic_string.tcc **** // permissions described in the GCC Runtime Library Exception, version
  18:c:\program files\daisytoolchain\arm-none-eabi\include\c++\10.2.1\bits\basic_string.tcc **** // 3.1, as published by the Free Software Foundation.
  19:c:\program files\daisytoolchain\arm-none-eabi\include\c++\10.2.1\bits\basic_string.tcc **** 
  20:c:\program files\daisytoolchain\arm-none-eabi\include\c++\10.2.1\bits\basic_string.tcc **** // You should have received a copy of the GNU General Public License and
  21:c:\program files\daisytoolchain\arm-none-eabi\include\c++\10.2.1\bits\basic_string.tcc **** // a copy of the GCC Runtime Library Exception along with this program;
  22:c:\program files\daisytoolchain\arm-none-eabi\include\c++\10.2.1\bits\basic_string.tcc **** // see the files COPYING3 and COPYING.RUNTIME respectively.  If not, see
ARM GAS  C:\Users\kenji\AppData\Local\Temp\cc5l7BVQ.s 			page 2


  23:c:\program files\daisytoolchain\arm-none-eabi\include\c++\10.2.1\bits\basic_string.tcc **** // <http://www.gnu.org/licenses/>.
  24:c:\program files\daisytoolchain\arm-none-eabi\include\c++\10.2.1\bits\basic_string.tcc **** 
  25:c:\program files\daisytoolchain\arm-none-eabi\include\c++\10.2.1\bits\basic_string.tcc **** /** @file bits/basic_string.tcc
  26:c:\program files\daisytoolchain\arm-none-eabi\include\c++\10.2.1\bits\basic_string.tcc ****  *  This is an internal header file, included by other library headers.
  27:c:\program files\daisytoolchain\arm-none-eabi\include\c++\10.2.1\bits\basic_string.tcc ****  *  Do not attempt to use it directly. @headername{string}
  28:c:\program files\daisytoolchain\arm-none-eabi\include\c++\10.2.1\bits\basic_string.tcc ****  */
  29:c:\program files\daisytoolchain\arm-none-eabi\include\c++\10.2.1\bits\basic_string.tcc **** 
  30:c:\program files\daisytoolchain\arm-none-eabi\include\c++\10.2.1\bits\basic_string.tcc **** //
  31:c:\program files\daisytoolchain\arm-none-eabi\include\c++\10.2.1\bits\basic_string.tcc **** // ISO C++ 14882: 21  Strings library
  32:c:\program files\daisytoolchain\arm-none-eabi\include\c++\10.2.1\bits\basic_string.tcc **** //
  33:c:\program files\daisytoolchain\arm-none-eabi\include\c++\10.2.1\bits\basic_string.tcc **** 
  34:c:\program files\daisytoolchain\arm-none-eabi\include\c++\10.2.1\bits\basic_string.tcc **** // Written by Jason Merrill based upon the specification by Takanori Adachi
  35:c:\program files\daisytoolchain\arm-none-eabi\include\c++\10.2.1\bits\basic_string.tcc **** // in ANSI X3J16/94-0013R2.  Rewritten by Nathan Myers to ISO-14882.
  36:c:\program files\daisytoolchain\arm-none-eabi\include\c++\10.2.1\bits\basic_string.tcc **** // Non-reference-counted implementation written by Paolo Carlini and
  37:c:\program files\daisytoolchain\arm-none-eabi\include\c++\10.2.1\bits\basic_string.tcc **** // updated by Jonathan Wakely for ISO-14882-2011.
  38:c:\program files\daisytoolchain\arm-none-eabi\include\c++\10.2.1\bits\basic_string.tcc **** 
  39:c:\program files\daisytoolchain\arm-none-eabi\include\c++\10.2.1\bits\basic_string.tcc **** #ifndef _BASIC_STRING_TCC
  40:c:\program files\daisytoolchain\arm-none-eabi\include\c++\10.2.1\bits\basic_string.tcc **** #define _BASIC_STRING_TCC 1
  41:c:\program files\daisytoolchain\arm-none-eabi\include\c++\10.2.1\bits\basic_string.tcc **** 
  42:c:\program files\daisytoolchain\arm-none-eabi\include\c++\10.2.1\bits\basic_string.tcc **** #pragma GCC system_header
  43:c:\program files\daisytoolchain\arm-none-eabi\include\c++\10.2.1\bits\basic_string.tcc **** 
  44:c:\program files\daisytoolchain\arm-none-eabi\include\c++\10.2.1\bits\basic_string.tcc **** #include <bits/cxxabi_forced.h>
  45:c:\program files\daisytoolchain\arm-none-eabi\include\c++\10.2.1\bits\basic_string.tcc **** 
  46:c:\program files\daisytoolchain\arm-none-eabi\include\c++\10.2.1\bits\basic_string.tcc **** namespace std _GLIBCXX_VISIBILITY(default)
  47:c:\program files\daisytoolchain\arm-none-eabi\include\c++\10.2.1\bits\basic_string.tcc **** {
  48:c:\program files\daisytoolchain\arm-none-eabi\include\c++\10.2.1\bits\basic_string.tcc **** _GLIBCXX_BEGIN_NAMESPACE_VERSION
  49:c:\program files\daisytoolchain\arm-none-eabi\include\c++\10.2.1\bits\basic_string.tcc **** 
  50:c:\program files\daisytoolchain\arm-none-eabi\include\c++\10.2.1\bits\basic_string.tcc **** #if _GLIBCXX_USE_CXX11_ABI
  51:c:\program files\daisytoolchain\arm-none-eabi\include\c++\10.2.1\bits\basic_string.tcc **** 
  52:c:\program files\daisytoolchain\arm-none-eabi\include\c++\10.2.1\bits\basic_string.tcc ****   template<typename _CharT, typename _Traits, typename _Alloc>
  53:c:\program files\daisytoolchain\arm-none-eabi\include\c++\10.2.1\bits\basic_string.tcc ****     const typename basic_string<_CharT, _Traits, _Alloc>::size_type
  54:c:\program files\daisytoolchain\arm-none-eabi\include\c++\10.2.1\bits\basic_string.tcc ****     basic_string<_CharT, _Traits, _Alloc>::npos;
  55:c:\program files\daisytoolchain\arm-none-eabi\include\c++\10.2.1\bits\basic_string.tcc **** 
  56:c:\program files\daisytoolchain\arm-none-eabi\include\c++\10.2.1\bits\basic_string.tcc ****   template<typename _CharT, typename _Traits, typename _Alloc>
  57:c:\program files\daisytoolchain\arm-none-eabi\include\c++\10.2.1\bits\basic_string.tcc ****     void
  58:c:\program files\daisytoolchain\arm-none-eabi\include\c++\10.2.1\bits\basic_string.tcc ****     basic_string<_CharT, _Traits, _Alloc>::
  59:c:\program files\daisytoolchain\arm-none-eabi\include\c++\10.2.1\bits\basic_string.tcc ****     swap(basic_string& __s) _GLIBCXX_NOEXCEPT
  60:c:\program files\daisytoolchain\arm-none-eabi\include\c++\10.2.1\bits\basic_string.tcc ****     {
  61:c:\program files\daisytoolchain\arm-none-eabi\include\c++\10.2.1\bits\basic_string.tcc ****       if (this == &__s)
  62:c:\program files\daisytoolchain\arm-none-eabi\include\c++\10.2.1\bits\basic_string.tcc **** 	return;
  63:c:\program files\daisytoolchain\arm-none-eabi\include\c++\10.2.1\bits\basic_string.tcc **** 
  64:c:\program files\daisytoolchain\arm-none-eabi\include\c++\10.2.1\bits\basic_string.tcc ****       _Alloc_traits::_S_on_swap(_M_get_allocator(), __s._M_get_allocator());
  65:c:\program files\daisytoolchain\arm-none-eabi\include\c++\10.2.1\bits\basic_string.tcc **** 
  66:c:\program files\daisytoolchain\arm-none-eabi\include\c++\10.2.1\bits\basic_string.tcc ****       if (_M_is_local())
  67:c:\program files\daisytoolchain\arm-none-eabi\include\c++\10.2.1\bits\basic_string.tcc **** 	if (__s._M_is_local())
  68:c:\program files\daisytoolchain\arm-none-eabi\include\c++\10.2.1\bits\basic_string.tcc **** 	  {
  69:c:\program files\daisytoolchain\arm-none-eabi\include\c++\10.2.1\bits\basic_string.tcc **** 	    if (length() && __s.length())
  70:c:\program files\daisytoolchain\arm-none-eabi\include\c++\10.2.1\bits\basic_string.tcc **** 	      {
  71:c:\program files\daisytoolchain\arm-none-eabi\include\c++\10.2.1\bits\basic_string.tcc **** 		_CharT __tmp_data[_S_local_capacity + 1];
  72:c:\program files\daisytoolchain\arm-none-eabi\include\c++\10.2.1\bits\basic_string.tcc **** 		traits_type::copy(__tmp_data, __s._M_local_buf,
  73:c:\program files\daisytoolchain\arm-none-eabi\include\c++\10.2.1\bits\basic_string.tcc **** 				  _S_local_capacity + 1);
  74:c:\program files\daisytoolchain\arm-none-eabi\include\c++\10.2.1\bits\basic_string.tcc **** 		traits_type::copy(__s._M_local_buf, _M_local_buf,
  75:c:\program files\daisytoolchain\arm-none-eabi\include\c++\10.2.1\bits\basic_string.tcc **** 				  _S_local_capacity + 1);
  76:c:\program files\daisytoolchain\arm-none-eabi\include\c++\10.2.1\bits\basic_string.tcc **** 		traits_type::copy(_M_local_buf, __tmp_data,
  77:c:\program files\daisytoolchain\arm-none-eabi\include\c++\10.2.1\bits\basic_string.tcc **** 				  _S_local_capacity + 1);
  78:c:\program files\daisytoolchain\arm-none-eabi\include\c++\10.2.1\bits\basic_string.tcc **** 	      }
  79:c:\program files\daisytoolchain\arm-none-eabi\include\c++\10.2.1\bits\basic_string.tcc **** 	    else if (__s.length())
ARM GAS  C:\Users\kenji\AppData\Local\Temp\cc5l7BVQ.s 			page 3


  80:c:\program files\daisytoolchain\arm-none-eabi\include\c++\10.2.1\bits\basic_string.tcc **** 	      {
  81:c:\program files\daisytoolchain\arm-none-eabi\include\c++\10.2.1\bits\basic_string.tcc **** 		traits_type::copy(_M_local_buf, __s._M_local_buf,
  82:c:\program files\daisytoolchain\arm-none-eabi\include\c++\10.2.1\bits\basic_string.tcc **** 				  _S_local_capacity + 1);
  83:c:\program files\daisytoolchain\arm-none-eabi\include\c++\10.2.1\bits\basic_string.tcc **** 		_M_length(__s.length());
  84:c:\program files\daisytoolchain\arm-none-eabi\include\c++\10.2.1\bits\basic_string.tcc **** 		__s._M_set_length(0);
  85:c:\program files\daisytoolchain\arm-none-eabi\include\c++\10.2.1\bits\basic_string.tcc **** 		return;
  86:c:\program files\daisytoolchain\arm-none-eabi\include\c++\10.2.1\bits\basic_string.tcc **** 	      }
  87:c:\program files\daisytoolchain\arm-none-eabi\include\c++\10.2.1\bits\basic_string.tcc **** 	    else if (length())
  88:c:\program files\daisytoolchain\arm-none-eabi\include\c++\10.2.1\bits\basic_string.tcc **** 	      {
  89:c:\program files\daisytoolchain\arm-none-eabi\include\c++\10.2.1\bits\basic_string.tcc **** 		traits_type::copy(__s._M_local_buf, _M_local_buf,
  90:c:\program files\daisytoolchain\arm-none-eabi\include\c++\10.2.1\bits\basic_string.tcc **** 				  _S_local_capacity + 1);
  91:c:\program files\daisytoolchain\arm-none-eabi\include\c++\10.2.1\bits\basic_string.tcc **** 		__s._M_length(length());
  92:c:\program files\daisytoolchain\arm-none-eabi\include\c++\10.2.1\bits\basic_string.tcc **** 		_M_set_length(0);
  93:c:\program files\daisytoolchain\arm-none-eabi\include\c++\10.2.1\bits\basic_string.tcc **** 		return;
  94:c:\program files\daisytoolchain\arm-none-eabi\include\c++\10.2.1\bits\basic_string.tcc **** 	      }
  95:c:\program files\daisytoolchain\arm-none-eabi\include\c++\10.2.1\bits\basic_string.tcc **** 	  }
  96:c:\program files\daisytoolchain\arm-none-eabi\include\c++\10.2.1\bits\basic_string.tcc **** 	else
  97:c:\program files\daisytoolchain\arm-none-eabi\include\c++\10.2.1\bits\basic_string.tcc **** 	  {
  98:c:\program files\daisytoolchain\arm-none-eabi\include\c++\10.2.1\bits\basic_string.tcc **** 	    const size_type __tmp_capacity = __s._M_allocated_capacity;
  99:c:\program files\daisytoolchain\arm-none-eabi\include\c++\10.2.1\bits\basic_string.tcc **** 	    traits_type::copy(__s._M_local_buf, _M_local_buf,
 100:c:\program files\daisytoolchain\arm-none-eabi\include\c++\10.2.1\bits\basic_string.tcc **** 			      _S_local_capacity + 1);
 101:c:\program files\daisytoolchain\arm-none-eabi\include\c++\10.2.1\bits\basic_string.tcc **** 	    _M_data(__s._M_data());
 102:c:\program files\daisytoolchain\arm-none-eabi\include\c++\10.2.1\bits\basic_string.tcc **** 	    __s._M_data(__s._M_local_buf);
 103:c:\program files\daisytoolchain\arm-none-eabi\include\c++\10.2.1\bits\basic_string.tcc **** 	    _M_capacity(__tmp_capacity);
 104:c:\program files\daisytoolchain\arm-none-eabi\include\c++\10.2.1\bits\basic_string.tcc **** 	  }
 105:c:\program files\daisytoolchain\arm-none-eabi\include\c++\10.2.1\bits\basic_string.tcc ****       else
 106:c:\program files\daisytoolchain\arm-none-eabi\include\c++\10.2.1\bits\basic_string.tcc **** 	{
 107:c:\program files\daisytoolchain\arm-none-eabi\include\c++\10.2.1\bits\basic_string.tcc **** 	  const size_type __tmp_capacity = _M_allocated_capacity;
 108:c:\program files\daisytoolchain\arm-none-eabi\include\c++\10.2.1\bits\basic_string.tcc **** 	  if (__s._M_is_local())
 109:c:\program files\daisytoolchain\arm-none-eabi\include\c++\10.2.1\bits\basic_string.tcc **** 	    {
 110:c:\program files\daisytoolchain\arm-none-eabi\include\c++\10.2.1\bits\basic_string.tcc **** 	      traits_type::copy(_M_local_buf, __s._M_local_buf,
 111:c:\program files\daisytoolchain\arm-none-eabi\include\c++\10.2.1\bits\basic_string.tcc **** 				_S_local_capacity + 1);
 112:c:\program files\daisytoolchain\arm-none-eabi\include\c++\10.2.1\bits\basic_string.tcc **** 	      __s._M_data(_M_data());
 113:c:\program files\daisytoolchain\arm-none-eabi\include\c++\10.2.1\bits\basic_string.tcc **** 	      _M_data(_M_local_buf);
 114:c:\program files\daisytoolchain\arm-none-eabi\include\c++\10.2.1\bits\basic_string.tcc **** 	    }
 115:c:\program files\daisytoolchain\arm-none-eabi\include\c++\10.2.1\bits\basic_string.tcc **** 	  else
 116:c:\program files\daisytoolchain\arm-none-eabi\include\c++\10.2.1\bits\basic_string.tcc **** 	    {
 117:c:\program files\daisytoolchain\arm-none-eabi\include\c++\10.2.1\bits\basic_string.tcc **** 	      pointer __tmp_ptr = _M_data();
 118:c:\program files\daisytoolchain\arm-none-eabi\include\c++\10.2.1\bits\basic_string.tcc **** 	      _M_data(__s._M_data());
 119:c:\program files\daisytoolchain\arm-none-eabi\include\c++\10.2.1\bits\basic_string.tcc **** 	      __s._M_data(__tmp_ptr);
 120:c:\program files\daisytoolchain\arm-none-eabi\include\c++\10.2.1\bits\basic_string.tcc **** 	      _M_capacity(__s._M_allocated_capacity);
 121:c:\program files\daisytoolchain\arm-none-eabi\include\c++\10.2.1\bits\basic_string.tcc **** 	    }
 122:c:\program files\daisytoolchain\arm-none-eabi\include\c++\10.2.1\bits\basic_string.tcc **** 	  __s._M_capacity(__tmp_capacity);
 123:c:\program files\daisytoolchain\arm-none-eabi\include\c++\10.2.1\bits\basic_string.tcc **** 	}
 124:c:\program files\daisytoolchain\arm-none-eabi\include\c++\10.2.1\bits\basic_string.tcc **** 
 125:c:\program files\daisytoolchain\arm-none-eabi\include\c++\10.2.1\bits\basic_string.tcc ****       const size_type __tmp_length = length();
 126:c:\program files\daisytoolchain\arm-none-eabi\include\c++\10.2.1\bits\basic_string.tcc ****       _M_length(__s.length());
 127:c:\program files\daisytoolchain\arm-none-eabi\include\c++\10.2.1\bits\basic_string.tcc ****       __s._M_length(__tmp_length);
 128:c:\program files\daisytoolchain\arm-none-eabi\include\c++\10.2.1\bits\basic_string.tcc ****     }
 129:c:\program files\daisytoolchain\arm-none-eabi\include\c++\10.2.1\bits\basic_string.tcc **** 
 130:c:\program files\daisytoolchain\arm-none-eabi\include\c++\10.2.1\bits\basic_string.tcc ****   template<typename _CharT, typename _Traits, typename _Alloc>
 131:c:\program files\daisytoolchain\arm-none-eabi\include\c++\10.2.1\bits\basic_string.tcc ****     typename basic_string<_CharT, _Traits, _Alloc>::pointer
 132:c:\program files\daisytoolchain\arm-none-eabi\include\c++\10.2.1\bits\basic_string.tcc ****     basic_string<_CharT, _Traits, _Alloc>::
 133:c:\program files\daisytoolchain\arm-none-eabi\include\c++\10.2.1\bits\basic_string.tcc ****     _M_create(size_type& __capacity, size_type __old_capacity)
 134:c:\program files\daisytoolchain\arm-none-eabi\include\c++\10.2.1\bits\basic_string.tcc ****     {
 135:c:\program files\daisytoolchain\arm-none-eabi\include\c++\10.2.1\bits\basic_string.tcc ****       // _GLIBCXX_RESOLVE_LIB_DEFECTS
 136:c:\program files\daisytoolchain\arm-none-eabi\include\c++\10.2.1\bits\basic_string.tcc ****       // 83.  String::npos vs. string::max_size()
ARM GAS  C:\Users\kenji\AppData\Local\Temp\cc5l7BVQ.s 			page 4


 137:c:\program files\daisytoolchain\arm-none-eabi\include\c++\10.2.1\bits\basic_string.tcc ****       if (__capacity > max_size())
 138:c:\program files\daisytoolchain\arm-none-eabi\include\c++\10.2.1\bits\basic_string.tcc **** 	std::__throw_length_error(__N("basic_string::_M_create"));
 139:c:\program files\daisytoolchain\arm-none-eabi\include\c++\10.2.1\bits\basic_string.tcc **** 
 140:c:\program files\daisytoolchain\arm-none-eabi\include\c++\10.2.1\bits\basic_string.tcc ****       // The below implements an exponential growth policy, necessary to
 141:c:\program files\daisytoolchain\arm-none-eabi\include\c++\10.2.1\bits\basic_string.tcc ****       // meet amortized linear time requirements of the library: see
 142:c:\program files\daisytoolchain\arm-none-eabi\include\c++\10.2.1\bits\basic_string.tcc ****       // http://gcc.gnu.org/ml/libstdc++/2001-07/msg00085.html.
 143:c:\program files\daisytoolchain\arm-none-eabi\include\c++\10.2.1\bits\basic_string.tcc ****       if (__capacity > __old_capacity && __capacity < 2 * __old_capacity)
 144:c:\program files\daisytoolchain\arm-none-eabi\include\c++\10.2.1\bits\basic_string.tcc **** 	{
 145:c:\program files\daisytoolchain\arm-none-eabi\include\c++\10.2.1\bits\basic_string.tcc **** 	  __capacity = 2 * __old_capacity;
 146:c:\program files\daisytoolchain\arm-none-eabi\include\c++\10.2.1\bits\basic_string.tcc **** 	  // Never allocate a string bigger than max_size.
 147:c:\program files\daisytoolchain\arm-none-eabi\include\c++\10.2.1\bits\basic_string.tcc **** 	  if (__capacity > max_size())
 148:c:\program files\daisytoolchain\arm-none-eabi\include\c++\10.2.1\bits\basic_string.tcc **** 	    __capacity = max_size();
 149:c:\program files\daisytoolchain\arm-none-eabi\include\c++\10.2.1\bits\basic_string.tcc **** 	}
 150:c:\program files\daisytoolchain\arm-none-eabi\include\c++\10.2.1\bits\basic_string.tcc **** 
 151:c:\program files\daisytoolchain\arm-none-eabi\include\c++\10.2.1\bits\basic_string.tcc ****       // NB: Need an array of char_type[__capacity], plus a terminating
 152:c:\program files\daisytoolchain\arm-none-eabi\include\c++\10.2.1\bits\basic_string.tcc ****       // null char_type() element.
 153:c:\program files\daisytoolchain\arm-none-eabi\include\c++\10.2.1\bits\basic_string.tcc ****       return _Alloc_traits::allocate(_M_get_allocator(), __capacity + 1);
 154:c:\program files\daisytoolchain\arm-none-eabi\include\c++\10.2.1\bits\basic_string.tcc ****     }
 155:c:\program files\daisytoolchain\arm-none-eabi\include\c++\10.2.1\bits\basic_string.tcc **** 
 156:c:\program files\daisytoolchain\arm-none-eabi\include\c++\10.2.1\bits\basic_string.tcc ****   // NB: This is the special case for Input Iterators, used in
 157:c:\program files\daisytoolchain\arm-none-eabi\include\c++\10.2.1\bits\basic_string.tcc ****   // istreambuf_iterators, etc.
 158:c:\program files\daisytoolchain\arm-none-eabi\include\c++\10.2.1\bits\basic_string.tcc ****   // Input Iterators have a cost structure very different from
 159:c:\program files\daisytoolchain\arm-none-eabi\include\c++\10.2.1\bits\basic_string.tcc ****   // pointers, calling for a different coding style.
 160:c:\program files\daisytoolchain\arm-none-eabi\include\c++\10.2.1\bits\basic_string.tcc ****   template<typename _CharT, typename _Traits, typename _Alloc>
 161:c:\program files\daisytoolchain\arm-none-eabi\include\c++\10.2.1\bits\basic_string.tcc ****     template<typename _InIterator>
 162:c:\program files\daisytoolchain\arm-none-eabi\include\c++\10.2.1\bits\basic_string.tcc ****       void
 163:c:\program files\daisytoolchain\arm-none-eabi\include\c++\10.2.1\bits\basic_string.tcc ****       basic_string<_CharT, _Traits, _Alloc>::
 164:c:\program files\daisytoolchain\arm-none-eabi\include\c++\10.2.1\bits\basic_string.tcc ****       _M_construct(_InIterator __beg, _InIterator __end,
 165:c:\program files\daisytoolchain\arm-none-eabi\include\c++\10.2.1\bits\basic_string.tcc **** 		   std::input_iterator_tag)
 166:c:\program files\daisytoolchain\arm-none-eabi\include\c++\10.2.1\bits\basic_string.tcc ****       {
 167:c:\program files\daisytoolchain\arm-none-eabi\include\c++\10.2.1\bits\basic_string.tcc **** 	size_type __len = 0;
 168:c:\program files\daisytoolchain\arm-none-eabi\include\c++\10.2.1\bits\basic_string.tcc **** 	size_type __capacity = size_type(_S_local_capacity);
 169:c:\program files\daisytoolchain\arm-none-eabi\include\c++\10.2.1\bits\basic_string.tcc **** 
 170:c:\program files\daisytoolchain\arm-none-eabi\include\c++\10.2.1\bits\basic_string.tcc **** 	while (__beg != __end && __len < __capacity)
 171:c:\program files\daisytoolchain\arm-none-eabi\include\c++\10.2.1\bits\basic_string.tcc **** 	  {
 172:c:\program files\daisytoolchain\arm-none-eabi\include\c++\10.2.1\bits\basic_string.tcc **** 	    _M_data()[__len++] = *__beg;
 173:c:\program files\daisytoolchain\arm-none-eabi\include\c++\10.2.1\bits\basic_string.tcc **** 	    ++__beg;
 174:c:\program files\daisytoolchain\arm-none-eabi\include\c++\10.2.1\bits\basic_string.tcc **** 	  }
 175:c:\program files\daisytoolchain\arm-none-eabi\include\c++\10.2.1\bits\basic_string.tcc **** 
 176:c:\program files\daisytoolchain\arm-none-eabi\include\c++\10.2.1\bits\basic_string.tcc **** 	__try
 177:c:\program files\daisytoolchain\arm-none-eabi\include\c++\10.2.1\bits\basic_string.tcc **** 	  {
 178:c:\program files\daisytoolchain\arm-none-eabi\include\c++\10.2.1\bits\basic_string.tcc **** 	    while (__beg != __end)
 179:c:\program files\daisytoolchain\arm-none-eabi\include\c++\10.2.1\bits\basic_string.tcc **** 	      {
 180:c:\program files\daisytoolchain\arm-none-eabi\include\c++\10.2.1\bits\basic_string.tcc **** 		if (__len == __capacity)
 181:c:\program files\daisytoolchain\arm-none-eabi\include\c++\10.2.1\bits\basic_string.tcc **** 		  {
 182:c:\program files\daisytoolchain\arm-none-eabi\include\c++\10.2.1\bits\basic_string.tcc **** 		    // Allocate more space.
 183:c:\program files\daisytoolchain\arm-none-eabi\include\c++\10.2.1\bits\basic_string.tcc **** 		    __capacity = __len + 1;
 184:c:\program files\daisytoolchain\arm-none-eabi\include\c++\10.2.1\bits\basic_string.tcc **** 		    pointer __another = _M_create(__capacity, __len);
 185:c:\program files\daisytoolchain\arm-none-eabi\include\c++\10.2.1\bits\basic_string.tcc **** 		    this->_S_copy(__another, _M_data(), __len);
 186:c:\program files\daisytoolchain\arm-none-eabi\include\c++\10.2.1\bits\basic_string.tcc **** 		    _M_dispose();
 187:c:\program files\daisytoolchain\arm-none-eabi\include\c++\10.2.1\bits\basic_string.tcc **** 		    _M_data(__another);
 188:c:\program files\daisytoolchain\arm-none-eabi\include\c++\10.2.1\bits\basic_string.tcc **** 		    _M_capacity(__capacity);
 189:c:\program files\daisytoolchain\arm-none-eabi\include\c++\10.2.1\bits\basic_string.tcc **** 		  }
 190:c:\program files\daisytoolchain\arm-none-eabi\include\c++\10.2.1\bits\basic_string.tcc **** 		_M_data()[__len++] = *__beg;
 191:c:\program files\daisytoolchain\arm-none-eabi\include\c++\10.2.1\bits\basic_string.tcc **** 		++__beg;
 192:c:\program files\daisytoolchain\arm-none-eabi\include\c++\10.2.1\bits\basic_string.tcc **** 	      }
 193:c:\program files\daisytoolchain\arm-none-eabi\include\c++\10.2.1\bits\basic_string.tcc **** 	  }
ARM GAS  C:\Users\kenji\AppData\Local\Temp\cc5l7BVQ.s 			page 5


 194:c:\program files\daisytoolchain\arm-none-eabi\include\c++\10.2.1\bits\basic_string.tcc **** 	__catch(...)
 195:c:\program files\daisytoolchain\arm-none-eabi\include\c++\10.2.1\bits\basic_string.tcc **** 	  {
 196:c:\program files\daisytoolchain\arm-none-eabi\include\c++\10.2.1\bits\basic_string.tcc **** 	    _M_dispose();
 197:c:\program files\daisytoolchain\arm-none-eabi\include\c++\10.2.1\bits\basic_string.tcc **** 	    __throw_exception_again;
 198:c:\program files\daisytoolchain\arm-none-eabi\include\c++\10.2.1\bits\basic_string.tcc **** 	  }
 199:c:\program files\daisytoolchain\arm-none-eabi\include\c++\10.2.1\bits\basic_string.tcc **** 
 200:c:\program files\daisytoolchain\arm-none-eabi\include\c++\10.2.1\bits\basic_string.tcc **** 	_M_set_length(__len);
 201:c:\program files\daisytoolchain\arm-none-eabi\include\c++\10.2.1\bits\basic_string.tcc ****       }
 202:c:\program files\daisytoolchain\arm-none-eabi\include\c++\10.2.1\bits\basic_string.tcc **** 
 203:c:\program files\daisytoolchain\arm-none-eabi\include\c++\10.2.1\bits\basic_string.tcc ****   template<typename _CharT, typename _Traits, typename _Alloc>
 204:c:\program files\daisytoolchain\arm-none-eabi\include\c++\10.2.1\bits\basic_string.tcc ****     template<typename _InIterator>
 205:c:\program files\daisytoolchain\arm-none-eabi\include\c++\10.2.1\bits\basic_string.tcc ****       void
 206:c:\program files\daisytoolchain\arm-none-eabi\include\c++\10.2.1\bits\basic_string.tcc ****       basic_string<_CharT, _Traits, _Alloc>::
  33              		.loc 1 206 7 view -0
  34              		.cfi_startproc
  35              		@ args = 0, pretend = 0, frame = 8
  36              		@ frame_needed = 0, uses_anonymous_args = 0
  37              		.loc 1 206 7 is_stmt 0 view .LVU1
  38 0000 70B5     		push	{r4, r5, r6, lr}
  39              		.cfi_def_cfa_offset 16
  40              		.cfi_offset 4, -16
  41              		.cfi_offset 5, -12
  42              		.cfi_offset 6, -8
  43              		.cfi_offset 14, -4
  44 0002 0546     		mov	r5, r0
  45 0004 82B0     		sub	sp, sp, #8
  46              		.cfi_def_cfa_offset 24
  47              		.loc 1 206 7 view .LVU2
  48 0006 0E46     		mov	r6, r1
 207:c:\program files\daisytoolchain\arm-none-eabi\include\c++\10.2.1\bits\basic_string.tcc ****       _M_construct(_InIterator __beg, _InIterator __end,
 208:c:\program files\daisytoolchain\arm-none-eabi\include\c++\10.2.1\bits\basic_string.tcc **** 		   std::forward_iterator_tag)
 209:c:\program files\daisytoolchain\arm-none-eabi\include\c++\10.2.1\bits\basic_string.tcc ****       {
 210:c:\program files\daisytoolchain\arm-none-eabi\include\c++\10.2.1\bits\basic_string.tcc **** 	// NB: Not required, but considered best practice.
 211:c:\program files\daisytoolchain\arm-none-eabi\include\c++\10.2.1\bits\basic_string.tcc **** 	if (__gnu_cxx::__is_null_pointer(__beg) && __beg != __end)
  49              		.loc 1 211 42 view .LVU3
  50 0008 02B1     		cbz	r2, .L2
  51 000a 41B3     		cbz	r1, .L19
  52              	.L2:
  53              	.LVL1:
  54              	.LBB435:
  55              	.LBI435:
  56              		.file 2 "c:\\program files\\daisytoolchain\\arm-none-eabi\\include\\c++\\10.2.1\\bits\\stl_iterato
   1:c:\program files\daisytoolchain\arm-none-eabi\include\c++\10.2.1\bits\stl_iterator_base_funcs.h **** // Functions used by iterators -*- C++ -*-
   2:c:\program files\daisytoolchain\arm-none-eabi\include\c++\10.2.1\bits\stl_iterator_base_funcs.h **** 
   3:c:\program files\daisytoolchain\arm-none-eabi\include\c++\10.2.1\bits\stl_iterator_base_funcs.h **** // Copyright (C) 2001-2020 Free Software Foundation, Inc.
   4:c:\program files\daisytoolchain\arm-none-eabi\include\c++\10.2.1\bits\stl_iterator_base_funcs.h **** //
   5:c:\program files\daisytoolchain\arm-none-eabi\include\c++\10.2.1\bits\stl_iterator_base_funcs.h **** // This file is part of the GNU ISO C++ Library.  This library is free
   6:c:\program files\daisytoolchain\arm-none-eabi\include\c++\10.2.1\bits\stl_iterator_base_funcs.h **** // software; you can redistribute it and/or modify it under the
   7:c:\program files\daisytoolchain\arm-none-eabi\include\c++\10.2.1\bits\stl_iterator_base_funcs.h **** // terms of the GNU General Public License as published by the
   8:c:\program files\daisytoolchain\arm-none-eabi\include\c++\10.2.1\bits\stl_iterator_base_funcs.h **** // Free Software Foundation; either version 3, or (at your option)
   9:c:\program files\daisytoolchain\arm-none-eabi\include\c++\10.2.1\bits\stl_iterator_base_funcs.h **** // any later version.
  10:c:\program files\daisytoolchain\arm-none-eabi\include\c++\10.2.1\bits\stl_iterator_base_funcs.h **** 
  11:c:\program files\daisytoolchain\arm-none-eabi\include\c++\10.2.1\bits\stl_iterator_base_funcs.h **** // This library is distributed in the hope that it will be useful,
  12:c:\program files\daisytoolchain\arm-none-eabi\include\c++\10.2.1\bits\stl_iterator_base_funcs.h **** // but WITHOUT ANY WARRANTY; without even the implied warranty of
  13:c:\program files\daisytoolchain\arm-none-eabi\include\c++\10.2.1\bits\stl_iterator_base_funcs.h **** // MERCHANTABILITY or FITNESS FOR A PARTICULAR PURPOSE.  See the
  14:c:\program files\daisytoolchain\arm-none-eabi\include\c++\10.2.1\bits\stl_iterator_base_funcs.h **** // GNU General Public License for more details.
  15:c:\program files\daisytoolchain\arm-none-eabi\include\c++\10.2.1\bits\stl_iterator_base_funcs.h **** 
ARM GAS  C:\Users\kenji\AppData\Local\Temp\cc5l7BVQ.s 			page 6


  16:c:\program files\daisytoolchain\arm-none-eabi\include\c++\10.2.1\bits\stl_iterator_base_funcs.h **** // Under Section 7 of GPL version 3, you are granted additional
  17:c:\program files\daisytoolchain\arm-none-eabi\include\c++\10.2.1\bits\stl_iterator_base_funcs.h **** // permissions described in the GCC Runtime Library Exception, version
  18:c:\program files\daisytoolchain\arm-none-eabi\include\c++\10.2.1\bits\stl_iterator_base_funcs.h **** // 3.1, as published by the Free Software Foundation.
  19:c:\program files\daisytoolchain\arm-none-eabi\include\c++\10.2.1\bits\stl_iterator_base_funcs.h **** 
  20:c:\program files\daisytoolchain\arm-none-eabi\include\c++\10.2.1\bits\stl_iterator_base_funcs.h **** // You should have received a copy of the GNU General Public License and
  21:c:\program files\daisytoolchain\arm-none-eabi\include\c++\10.2.1\bits\stl_iterator_base_funcs.h **** // a copy of the GCC Runtime Library Exception along with this program;
  22:c:\program files\daisytoolchain\arm-none-eabi\include\c++\10.2.1\bits\stl_iterator_base_funcs.h **** // see the files COPYING3 and COPYING.RUNTIME respectively.  If not, see
  23:c:\program files\daisytoolchain\arm-none-eabi\include\c++\10.2.1\bits\stl_iterator_base_funcs.h **** // <http://www.gnu.org/licenses/>.
  24:c:\program files\daisytoolchain\arm-none-eabi\include\c++\10.2.1\bits\stl_iterator_base_funcs.h **** 
  25:c:\program files\daisytoolchain\arm-none-eabi\include\c++\10.2.1\bits\stl_iterator_base_funcs.h **** /*
  26:c:\program files\daisytoolchain\arm-none-eabi\include\c++\10.2.1\bits\stl_iterator_base_funcs.h ****  *
  27:c:\program files\daisytoolchain\arm-none-eabi\include\c++\10.2.1\bits\stl_iterator_base_funcs.h ****  * Copyright (c) 1994
  28:c:\program files\daisytoolchain\arm-none-eabi\include\c++\10.2.1\bits\stl_iterator_base_funcs.h ****  * Hewlett-Packard Company
  29:c:\program files\daisytoolchain\arm-none-eabi\include\c++\10.2.1\bits\stl_iterator_base_funcs.h ****  *
  30:c:\program files\daisytoolchain\arm-none-eabi\include\c++\10.2.1\bits\stl_iterator_base_funcs.h ****  * Permission to use, copy, modify, distribute and sell this software
  31:c:\program files\daisytoolchain\arm-none-eabi\include\c++\10.2.1\bits\stl_iterator_base_funcs.h ****  * and its documentation for any purpose is hereby granted without fee,
  32:c:\program files\daisytoolchain\arm-none-eabi\include\c++\10.2.1\bits\stl_iterator_base_funcs.h ****  * provided that the above copyright notice appear in all copies and
  33:c:\program files\daisytoolchain\arm-none-eabi\include\c++\10.2.1\bits\stl_iterator_base_funcs.h ****  * that both that copyright notice and this permission notice appear
  34:c:\program files\daisytoolchain\arm-none-eabi\include\c++\10.2.1\bits\stl_iterator_base_funcs.h ****  * in supporting documentation.  Hewlett-Packard Company makes no
  35:c:\program files\daisytoolchain\arm-none-eabi\include\c++\10.2.1\bits\stl_iterator_base_funcs.h ****  * representations about the suitability of this software for any
  36:c:\program files\daisytoolchain\arm-none-eabi\include\c++\10.2.1\bits\stl_iterator_base_funcs.h ****  * purpose.  It is provided "as is" without express or implied warranty.
  37:c:\program files\daisytoolchain\arm-none-eabi\include\c++\10.2.1\bits\stl_iterator_base_funcs.h ****  *
  38:c:\program files\daisytoolchain\arm-none-eabi\include\c++\10.2.1\bits\stl_iterator_base_funcs.h ****  *
  39:c:\program files\daisytoolchain\arm-none-eabi\include\c++\10.2.1\bits\stl_iterator_base_funcs.h ****  * Copyright (c) 1996-1998
  40:c:\program files\daisytoolchain\arm-none-eabi\include\c++\10.2.1\bits\stl_iterator_base_funcs.h ****  * Silicon Graphics Computer Systems, Inc.
  41:c:\program files\daisytoolchain\arm-none-eabi\include\c++\10.2.1\bits\stl_iterator_base_funcs.h ****  *
  42:c:\program files\daisytoolchain\arm-none-eabi\include\c++\10.2.1\bits\stl_iterator_base_funcs.h ****  * Permission to use, copy, modify, distribute and sell this software
  43:c:\program files\daisytoolchain\arm-none-eabi\include\c++\10.2.1\bits\stl_iterator_base_funcs.h ****  * and its documentation for any purpose is hereby granted without fee,
  44:c:\program files\daisytoolchain\arm-none-eabi\include\c++\10.2.1\bits\stl_iterator_base_funcs.h ****  * provided that the above copyright notice appear in all copies and
  45:c:\program files\daisytoolchain\arm-none-eabi\include\c++\10.2.1\bits\stl_iterator_base_funcs.h ****  * that both that copyright notice and this permission notice appear
  46:c:\program files\daisytoolchain\arm-none-eabi\include\c++\10.2.1\bits\stl_iterator_base_funcs.h ****  * in supporting documentation.  Silicon Graphics makes no
  47:c:\program files\daisytoolchain\arm-none-eabi\include\c++\10.2.1\bits\stl_iterator_base_funcs.h ****  * representations about the suitability of this software for any
  48:c:\program files\daisytoolchain\arm-none-eabi\include\c++\10.2.1\bits\stl_iterator_base_funcs.h ****  * purpose.  It is provided "as is" without express or implied warranty.
  49:c:\program files\daisytoolchain\arm-none-eabi\include\c++\10.2.1\bits\stl_iterator_base_funcs.h ****  */
  50:c:\program files\daisytoolchain\arm-none-eabi\include\c++\10.2.1\bits\stl_iterator_base_funcs.h **** 
  51:c:\program files\daisytoolchain\arm-none-eabi\include\c++\10.2.1\bits\stl_iterator_base_funcs.h **** /** @file bits/stl_iterator_base_funcs.h
  52:c:\program files\daisytoolchain\arm-none-eabi\include\c++\10.2.1\bits\stl_iterator_base_funcs.h ****  *  This is an internal header file, included by other library headers.
  53:c:\program files\daisytoolchain\arm-none-eabi\include\c++\10.2.1\bits\stl_iterator_base_funcs.h ****  *  Do not attempt to use it directly. @headername{iterator}
  54:c:\program files\daisytoolchain\arm-none-eabi\include\c++\10.2.1\bits\stl_iterator_base_funcs.h ****  *
  55:c:\program files\daisytoolchain\arm-none-eabi\include\c++\10.2.1\bits\stl_iterator_base_funcs.h ****  *  This file contains all of the general iterator-related utility
  56:c:\program files\daisytoolchain\arm-none-eabi\include\c++\10.2.1\bits\stl_iterator_base_funcs.h ****  *  functions, such as distance() and advance().
  57:c:\program files\daisytoolchain\arm-none-eabi\include\c++\10.2.1\bits\stl_iterator_base_funcs.h ****  */
  58:c:\program files\daisytoolchain\arm-none-eabi\include\c++\10.2.1\bits\stl_iterator_base_funcs.h **** 
  59:c:\program files\daisytoolchain\arm-none-eabi\include\c++\10.2.1\bits\stl_iterator_base_funcs.h **** #ifndef _STL_ITERATOR_BASE_FUNCS_H
  60:c:\program files\daisytoolchain\arm-none-eabi\include\c++\10.2.1\bits\stl_iterator_base_funcs.h **** #define _STL_ITERATOR_BASE_FUNCS_H 1
  61:c:\program files\daisytoolchain\arm-none-eabi\include\c++\10.2.1\bits\stl_iterator_base_funcs.h **** 
  62:c:\program files\daisytoolchain\arm-none-eabi\include\c++\10.2.1\bits\stl_iterator_base_funcs.h **** #pragma GCC system_header
  63:c:\program files\daisytoolchain\arm-none-eabi\include\c++\10.2.1\bits\stl_iterator_base_funcs.h **** 
  64:c:\program files\daisytoolchain\arm-none-eabi\include\c++\10.2.1\bits\stl_iterator_base_funcs.h **** #include <bits/concept_check.h>
  65:c:\program files\daisytoolchain\arm-none-eabi\include\c++\10.2.1\bits\stl_iterator_base_funcs.h **** #include <debug/assertions.h>
  66:c:\program files\daisytoolchain\arm-none-eabi\include\c++\10.2.1\bits\stl_iterator_base_funcs.h **** 
  67:c:\program files\daisytoolchain\arm-none-eabi\include\c++\10.2.1\bits\stl_iterator_base_funcs.h **** namespace std _GLIBCXX_VISIBILITY(default)
  68:c:\program files\daisytoolchain\arm-none-eabi\include\c++\10.2.1\bits\stl_iterator_base_funcs.h **** {
  69:c:\program files\daisytoolchain\arm-none-eabi\include\c++\10.2.1\bits\stl_iterator_base_funcs.h **** _GLIBCXX_BEGIN_NAMESPACE_VERSION
  70:c:\program files\daisytoolchain\arm-none-eabi\include\c++\10.2.1\bits\stl_iterator_base_funcs.h **** 
  71:c:\program files\daisytoolchain\arm-none-eabi\include\c++\10.2.1\bits\stl_iterator_base_funcs.h **** _GLIBCXX_BEGIN_NAMESPACE_CONTAINER
  72:c:\program files\daisytoolchain\arm-none-eabi\include\c++\10.2.1\bits\stl_iterator_base_funcs.h ****   // Forward declaration for the overloads of __distance.
ARM GAS  C:\Users\kenji\AppData\Local\Temp\cc5l7BVQ.s 			page 7


  73:c:\program files\daisytoolchain\arm-none-eabi\include\c++\10.2.1\bits\stl_iterator_base_funcs.h ****   template <typename> struct _List_iterator;
  74:c:\program files\daisytoolchain\arm-none-eabi\include\c++\10.2.1\bits\stl_iterator_base_funcs.h ****   template <typename> struct _List_const_iterator;
  75:c:\program files\daisytoolchain\arm-none-eabi\include\c++\10.2.1\bits\stl_iterator_base_funcs.h **** _GLIBCXX_END_NAMESPACE_CONTAINER
  76:c:\program files\daisytoolchain\arm-none-eabi\include\c++\10.2.1\bits\stl_iterator_base_funcs.h **** 
  77:c:\program files\daisytoolchain\arm-none-eabi\include\c++\10.2.1\bits\stl_iterator_base_funcs.h ****   template<typename _InputIterator>
  78:c:\program files\daisytoolchain\arm-none-eabi\include\c++\10.2.1\bits\stl_iterator_base_funcs.h ****     inline _GLIBCXX14_CONSTEXPR
  79:c:\program files\daisytoolchain\arm-none-eabi\include\c++\10.2.1\bits\stl_iterator_base_funcs.h ****     typename iterator_traits<_InputIterator>::difference_type
  80:c:\program files\daisytoolchain\arm-none-eabi\include\c++\10.2.1\bits\stl_iterator_base_funcs.h ****     __distance(_InputIterator __first, _InputIterator __last,
  81:c:\program files\daisytoolchain\arm-none-eabi\include\c++\10.2.1\bits\stl_iterator_base_funcs.h ****                input_iterator_tag)
  82:c:\program files\daisytoolchain\arm-none-eabi\include\c++\10.2.1\bits\stl_iterator_base_funcs.h ****     {
  83:c:\program files\daisytoolchain\arm-none-eabi\include\c++\10.2.1\bits\stl_iterator_base_funcs.h ****       // concept requirements
  84:c:\program files\daisytoolchain\arm-none-eabi\include\c++\10.2.1\bits\stl_iterator_base_funcs.h ****       __glibcxx_function_requires(_InputIteratorConcept<_InputIterator>)
  85:c:\program files\daisytoolchain\arm-none-eabi\include\c++\10.2.1\bits\stl_iterator_base_funcs.h **** 
  86:c:\program files\daisytoolchain\arm-none-eabi\include\c++\10.2.1\bits\stl_iterator_base_funcs.h ****       typename iterator_traits<_InputIterator>::difference_type __n = 0;
  87:c:\program files\daisytoolchain\arm-none-eabi\include\c++\10.2.1\bits\stl_iterator_base_funcs.h ****       while (__first != __last)
  88:c:\program files\daisytoolchain\arm-none-eabi\include\c++\10.2.1\bits\stl_iterator_base_funcs.h **** 	{
  89:c:\program files\daisytoolchain\arm-none-eabi\include\c++\10.2.1\bits\stl_iterator_base_funcs.h **** 	  ++__first;
  90:c:\program files\daisytoolchain\arm-none-eabi\include\c++\10.2.1\bits\stl_iterator_base_funcs.h **** 	  ++__n;
  91:c:\program files\daisytoolchain\arm-none-eabi\include\c++\10.2.1\bits\stl_iterator_base_funcs.h **** 	}
  92:c:\program files\daisytoolchain\arm-none-eabi\include\c++\10.2.1\bits\stl_iterator_base_funcs.h ****       return __n;
  93:c:\program files\daisytoolchain\arm-none-eabi\include\c++\10.2.1\bits\stl_iterator_base_funcs.h ****     }
  94:c:\program files\daisytoolchain\arm-none-eabi\include\c++\10.2.1\bits\stl_iterator_base_funcs.h **** 
  95:c:\program files\daisytoolchain\arm-none-eabi\include\c++\10.2.1\bits\stl_iterator_base_funcs.h ****   template<typename _RandomAccessIterator>
  96:c:\program files\daisytoolchain\arm-none-eabi\include\c++\10.2.1\bits\stl_iterator_base_funcs.h ****     inline _GLIBCXX14_CONSTEXPR
  97:c:\program files\daisytoolchain\arm-none-eabi\include\c++\10.2.1\bits\stl_iterator_base_funcs.h ****     typename iterator_traits<_RandomAccessIterator>::difference_type
  98:c:\program files\daisytoolchain\arm-none-eabi\include\c++\10.2.1\bits\stl_iterator_base_funcs.h ****     __distance(_RandomAccessIterator __first, _RandomAccessIterator __last,
  99:c:\program files\daisytoolchain\arm-none-eabi\include\c++\10.2.1\bits\stl_iterator_base_funcs.h ****                random_access_iterator_tag)
 100:c:\program files\daisytoolchain\arm-none-eabi\include\c++\10.2.1\bits\stl_iterator_base_funcs.h ****     {
 101:c:\program files\daisytoolchain\arm-none-eabi\include\c++\10.2.1\bits\stl_iterator_base_funcs.h ****       // concept requirements
 102:c:\program files\daisytoolchain\arm-none-eabi\include\c++\10.2.1\bits\stl_iterator_base_funcs.h ****       __glibcxx_function_requires(_RandomAccessIteratorConcept<
 103:c:\program files\daisytoolchain\arm-none-eabi\include\c++\10.2.1\bits\stl_iterator_base_funcs.h **** 				  _RandomAccessIterator>)
 104:c:\program files\daisytoolchain\arm-none-eabi\include\c++\10.2.1\bits\stl_iterator_base_funcs.h ****       return __last - __first;
 105:c:\program files\daisytoolchain\arm-none-eabi\include\c++\10.2.1\bits\stl_iterator_base_funcs.h ****     }
 106:c:\program files\daisytoolchain\arm-none-eabi\include\c++\10.2.1\bits\stl_iterator_base_funcs.h **** 
 107:c:\program files\daisytoolchain\arm-none-eabi\include\c++\10.2.1\bits\stl_iterator_base_funcs.h **** #if _GLIBCXX_USE_CXX11_ABI
 108:c:\program files\daisytoolchain\arm-none-eabi\include\c++\10.2.1\bits\stl_iterator_base_funcs.h ****   // Forward declaration because of the qualified call in distance.
 109:c:\program files\daisytoolchain\arm-none-eabi\include\c++\10.2.1\bits\stl_iterator_base_funcs.h ****   template<typename _Tp>
 110:c:\program files\daisytoolchain\arm-none-eabi\include\c++\10.2.1\bits\stl_iterator_base_funcs.h ****     ptrdiff_t
 111:c:\program files\daisytoolchain\arm-none-eabi\include\c++\10.2.1\bits\stl_iterator_base_funcs.h ****     __distance(_GLIBCXX_STD_C::_List_iterator<_Tp>,
 112:c:\program files\daisytoolchain\arm-none-eabi\include\c++\10.2.1\bits\stl_iterator_base_funcs.h **** 	       _GLIBCXX_STD_C::_List_iterator<_Tp>,
 113:c:\program files\daisytoolchain\arm-none-eabi\include\c++\10.2.1\bits\stl_iterator_base_funcs.h **** 	       input_iterator_tag);
 114:c:\program files\daisytoolchain\arm-none-eabi\include\c++\10.2.1\bits\stl_iterator_base_funcs.h **** 
 115:c:\program files\daisytoolchain\arm-none-eabi\include\c++\10.2.1\bits\stl_iterator_base_funcs.h ****   template<typename _Tp>
 116:c:\program files\daisytoolchain\arm-none-eabi\include\c++\10.2.1\bits\stl_iterator_base_funcs.h ****     ptrdiff_t
 117:c:\program files\daisytoolchain\arm-none-eabi\include\c++\10.2.1\bits\stl_iterator_base_funcs.h ****     __distance(_GLIBCXX_STD_C::_List_const_iterator<_Tp>,
 118:c:\program files\daisytoolchain\arm-none-eabi\include\c++\10.2.1\bits\stl_iterator_base_funcs.h **** 	       _GLIBCXX_STD_C::_List_const_iterator<_Tp>,
 119:c:\program files\daisytoolchain\arm-none-eabi\include\c++\10.2.1\bits\stl_iterator_base_funcs.h **** 	       input_iterator_tag);
 120:c:\program files\daisytoolchain\arm-none-eabi\include\c++\10.2.1\bits\stl_iterator_base_funcs.h **** #endif
 121:c:\program files\daisytoolchain\arm-none-eabi\include\c++\10.2.1\bits\stl_iterator_base_funcs.h **** 
 122:c:\program files\daisytoolchain\arm-none-eabi\include\c++\10.2.1\bits\stl_iterator_base_funcs.h ****   /**
 123:c:\program files\daisytoolchain\arm-none-eabi\include\c++\10.2.1\bits\stl_iterator_base_funcs.h ****    *  @brief A generalization of pointer arithmetic.
 124:c:\program files\daisytoolchain\arm-none-eabi\include\c++\10.2.1\bits\stl_iterator_base_funcs.h ****    *  @param  __first  An input iterator.
 125:c:\program files\daisytoolchain\arm-none-eabi\include\c++\10.2.1\bits\stl_iterator_base_funcs.h ****    *  @param  __last  An input iterator.
 126:c:\program files\daisytoolchain\arm-none-eabi\include\c++\10.2.1\bits\stl_iterator_base_funcs.h ****    *  @return  The distance between them.
 127:c:\program files\daisytoolchain\arm-none-eabi\include\c++\10.2.1\bits\stl_iterator_base_funcs.h ****    *
 128:c:\program files\daisytoolchain\arm-none-eabi\include\c++\10.2.1\bits\stl_iterator_base_funcs.h ****    *  Returns @c n such that __first + n == __last.  This requires
 129:c:\program files\daisytoolchain\arm-none-eabi\include\c++\10.2.1\bits\stl_iterator_base_funcs.h ****    *  that @p __last must be reachable from @p __first.  Note that @c
ARM GAS  C:\Users\kenji\AppData\Local\Temp\cc5l7BVQ.s 			page 8


 130:c:\program files\daisytoolchain\arm-none-eabi\include\c++\10.2.1\bits\stl_iterator_base_funcs.h ****    *  n may be negative.
 131:c:\program files\daisytoolchain\arm-none-eabi\include\c++\10.2.1\bits\stl_iterator_base_funcs.h ****    *
 132:c:\program files\daisytoolchain\arm-none-eabi\include\c++\10.2.1\bits\stl_iterator_base_funcs.h ****    *  For random access iterators, this uses their @c + and @c - operations
 133:c:\program files\daisytoolchain\arm-none-eabi\include\c++\10.2.1\bits\stl_iterator_base_funcs.h ****    *  and are constant time.  For other %iterator classes they are linear time.
 134:c:\program files\daisytoolchain\arm-none-eabi\include\c++\10.2.1\bits\stl_iterator_base_funcs.h ****   */
 135:c:\program files\daisytoolchain\arm-none-eabi\include\c++\10.2.1\bits\stl_iterator_base_funcs.h ****   template<typename _InputIterator>
 136:c:\program files\daisytoolchain\arm-none-eabi\include\c++\10.2.1\bits\stl_iterator_base_funcs.h ****     inline _GLIBCXX17_CONSTEXPR
 137:c:\program files\daisytoolchain\arm-none-eabi\include\c++\10.2.1\bits\stl_iterator_base_funcs.h ****     typename iterator_traits<_InputIterator>::difference_type
 138:c:\program files\daisytoolchain\arm-none-eabi\include\c++\10.2.1\bits\stl_iterator_base_funcs.h ****     distance(_InputIterator __first, _InputIterator __last)
  57              		.loc 2 138 5 is_stmt 1 view .LVU4
  58              	.LBB436:
  59              	.LBI436:
  98:c:\program files\daisytoolchain\arm-none-eabi\include\c++\10.2.1\bits\stl_iterator_base_funcs.h ****                random_access_iterator_tag)
  60              		.loc 2 98 5 view .LVU5
  61              	.LBB437:
 104:c:\program files\daisytoolchain\arm-none-eabi\include\c++\10.2.1\bits\stl_iterator_base_funcs.h ****     }
  62              		.loc 2 104 23 is_stmt 0 view .LVU6
  63 000c 941B     		subs	r4, r2, r6
  64              	.LBE437:
  65              	.LBE436:
  66              	.LBE435:
 212:c:\program files\daisytoolchain\arm-none-eabi\include\c++\10.2.1\bits\basic_string.tcc **** 	  std::__throw_logic_error(__N("basic_string::"
 213:c:\program files\daisytoolchain\arm-none-eabi\include\c++\10.2.1\bits\basic_string.tcc **** 				       "_M_construct null not valid"));
 214:c:\program files\daisytoolchain\arm-none-eabi\include\c++\10.2.1\bits\basic_string.tcc **** 
 215:c:\program files\daisytoolchain\arm-none-eabi\include\c++\10.2.1\bits\basic_string.tcc **** 	size_type __dnew = static_cast<size_type>(std::distance(__beg, __end));
 216:c:\program files\daisytoolchain\arm-none-eabi\include\c++\10.2.1\bits\basic_string.tcc **** 
 217:c:\program files\daisytoolchain\arm-none-eabi\include\c++\10.2.1\bits\basic_string.tcc **** 	if (__dnew > size_type(_S_local_capacity))
  67              		.loc 1 217 2 view .LVU7
  68 000e 0F2C     		cmp	r4, #15
 215:c:\program files\daisytoolchain\arm-none-eabi\include\c++\10.2.1\bits\basic_string.tcc **** 
  69              		.loc 1 215 12 view .LVU8
  70 0010 0194     		str	r4, [sp, #4]
  71              		.loc 1 217 2 view .LVU9
  72 0012 11D8     		bhi	.L20
  73              	.LVL2:
  74              	.LBB438:
  75              	.LBI438:
  76              		.file 3 "c:\\program files\\daisytoolchain\\arm-none-eabi\\include\\c++\\10.2.1\\bits\\basic_strin
   1:c:\program files\daisytoolchain\arm-none-eabi\include\c++\10.2.1\bits\basic_string.h **** // Components for manipulating sequences of characters -*- C++ -*-
   2:c:\program files\daisytoolchain\arm-none-eabi\include\c++\10.2.1\bits\basic_string.h **** 
   3:c:\program files\daisytoolchain\arm-none-eabi\include\c++\10.2.1\bits\basic_string.h **** // Copyright (C) 1997-2020 Free Software Foundation, Inc.
   4:c:\program files\daisytoolchain\arm-none-eabi\include\c++\10.2.1\bits\basic_string.h **** //
   5:c:\program files\daisytoolchain\arm-none-eabi\include\c++\10.2.1\bits\basic_string.h **** // This file is part of the GNU ISO C++ Library.  This library is free
   6:c:\program files\daisytoolchain\arm-none-eabi\include\c++\10.2.1\bits\basic_string.h **** // software; you can redistribute it and/or modify it under the
   7:c:\program files\daisytoolchain\arm-none-eabi\include\c++\10.2.1\bits\basic_string.h **** // terms of the GNU General Public License as published by the
   8:c:\program files\daisytoolchain\arm-none-eabi\include\c++\10.2.1\bits\basic_string.h **** // Free Software Foundation; either version 3, or (at your option)
   9:c:\program files\daisytoolchain\arm-none-eabi\include\c++\10.2.1\bits\basic_string.h **** // any later version.
  10:c:\program files\daisytoolchain\arm-none-eabi\include\c++\10.2.1\bits\basic_string.h **** 
  11:c:\program files\daisytoolchain\arm-none-eabi\include\c++\10.2.1\bits\basic_string.h **** // This library is distributed in the hope that it will be useful,
  12:c:\program files\daisytoolchain\arm-none-eabi\include\c++\10.2.1\bits\basic_string.h **** // but WITHOUT ANY WARRANTY; without even the implied warranty of
  13:c:\program files\daisytoolchain\arm-none-eabi\include\c++\10.2.1\bits\basic_string.h **** // MERCHANTABILITY or FITNESS FOR A PARTICULAR PURPOSE.  See the
  14:c:\program files\daisytoolchain\arm-none-eabi\include\c++\10.2.1\bits\basic_string.h **** // GNU General Public License for more details.
  15:c:\program files\daisytoolchain\arm-none-eabi\include\c++\10.2.1\bits\basic_string.h **** 
  16:c:\program files\daisytoolchain\arm-none-eabi\include\c++\10.2.1\bits\basic_string.h **** // Under Section 7 of GPL version 3, you are granted additional
  17:c:\program files\daisytoolchain\arm-none-eabi\include\c++\10.2.1\bits\basic_string.h **** // permissions described in the GCC Runtime Library Exception, version
  18:c:\program files\daisytoolchain\arm-none-eabi\include\c++\10.2.1\bits\basic_string.h **** // 3.1, as published by the Free Software Foundation.
  19:c:\program files\daisytoolchain\arm-none-eabi\include\c++\10.2.1\bits\basic_string.h **** 
ARM GAS  C:\Users\kenji\AppData\Local\Temp\cc5l7BVQ.s 			page 9


  20:c:\program files\daisytoolchain\arm-none-eabi\include\c++\10.2.1\bits\basic_string.h **** // You should have received a copy of the GNU General Public License and
  21:c:\program files\daisytoolchain\arm-none-eabi\include\c++\10.2.1\bits\basic_string.h **** // a copy of the GCC Runtime Library Exception along with this program;
  22:c:\program files\daisytoolchain\arm-none-eabi\include\c++\10.2.1\bits\basic_string.h **** // see the files COPYING3 and COPYING.RUNTIME respectively.  If not, see
  23:c:\program files\daisytoolchain\arm-none-eabi\include\c++\10.2.1\bits\basic_string.h **** // <http://www.gnu.org/licenses/>.
  24:c:\program files\daisytoolchain\arm-none-eabi\include\c++\10.2.1\bits\basic_string.h **** 
  25:c:\program files\daisytoolchain\arm-none-eabi\include\c++\10.2.1\bits\basic_string.h **** /** @file bits/basic_string.h
  26:c:\program files\daisytoolchain\arm-none-eabi\include\c++\10.2.1\bits\basic_string.h ****  *  This is an internal header file, included by other library headers.
  27:c:\program files\daisytoolchain\arm-none-eabi\include\c++\10.2.1\bits\basic_string.h ****  *  Do not attempt to use it directly. @headername{string}
  28:c:\program files\daisytoolchain\arm-none-eabi\include\c++\10.2.1\bits\basic_string.h ****  */
  29:c:\program files\daisytoolchain\arm-none-eabi\include\c++\10.2.1\bits\basic_string.h **** 
  30:c:\program files\daisytoolchain\arm-none-eabi\include\c++\10.2.1\bits\basic_string.h **** //
  31:c:\program files\daisytoolchain\arm-none-eabi\include\c++\10.2.1\bits\basic_string.h **** // ISO C++ 14882: 21 Strings library
  32:c:\program files\daisytoolchain\arm-none-eabi\include\c++\10.2.1\bits\basic_string.h **** //
  33:c:\program files\daisytoolchain\arm-none-eabi\include\c++\10.2.1\bits\basic_string.h **** 
  34:c:\program files\daisytoolchain\arm-none-eabi\include\c++\10.2.1\bits\basic_string.h **** #ifndef _BASIC_STRING_H
  35:c:\program files\daisytoolchain\arm-none-eabi\include\c++\10.2.1\bits\basic_string.h **** #define _BASIC_STRING_H 1
  36:c:\program files\daisytoolchain\arm-none-eabi\include\c++\10.2.1\bits\basic_string.h **** 
  37:c:\program files\daisytoolchain\arm-none-eabi\include\c++\10.2.1\bits\basic_string.h **** #pragma GCC system_header
  38:c:\program files\daisytoolchain\arm-none-eabi\include\c++\10.2.1\bits\basic_string.h **** 
  39:c:\program files\daisytoolchain\arm-none-eabi\include\c++\10.2.1\bits\basic_string.h **** #include <ext/atomicity.h>
  40:c:\program files\daisytoolchain\arm-none-eabi\include\c++\10.2.1\bits\basic_string.h **** #include <ext/alloc_traits.h>
  41:c:\program files\daisytoolchain\arm-none-eabi\include\c++\10.2.1\bits\basic_string.h **** #include <debug/debug.h>
  42:c:\program files\daisytoolchain\arm-none-eabi\include\c++\10.2.1\bits\basic_string.h **** 
  43:c:\program files\daisytoolchain\arm-none-eabi\include\c++\10.2.1\bits\basic_string.h **** #if __cplusplus >= 201103L
  44:c:\program files\daisytoolchain\arm-none-eabi\include\c++\10.2.1\bits\basic_string.h **** #include <initializer_list>
  45:c:\program files\daisytoolchain\arm-none-eabi\include\c++\10.2.1\bits\basic_string.h **** #endif
  46:c:\program files\daisytoolchain\arm-none-eabi\include\c++\10.2.1\bits\basic_string.h **** 
  47:c:\program files\daisytoolchain\arm-none-eabi\include\c++\10.2.1\bits\basic_string.h **** #if __cplusplus >= 201703L
  48:c:\program files\daisytoolchain\arm-none-eabi\include\c++\10.2.1\bits\basic_string.h **** # include <string_view>
  49:c:\program files\daisytoolchain\arm-none-eabi\include\c++\10.2.1\bits\basic_string.h **** #endif
  50:c:\program files\daisytoolchain\arm-none-eabi\include\c++\10.2.1\bits\basic_string.h **** 
  51:c:\program files\daisytoolchain\arm-none-eabi\include\c++\10.2.1\bits\basic_string.h **** 
  52:c:\program files\daisytoolchain\arm-none-eabi\include\c++\10.2.1\bits\basic_string.h **** namespace std _GLIBCXX_VISIBILITY(default)
  53:c:\program files\daisytoolchain\arm-none-eabi\include\c++\10.2.1\bits\basic_string.h **** {
  54:c:\program files\daisytoolchain\arm-none-eabi\include\c++\10.2.1\bits\basic_string.h **** _GLIBCXX_BEGIN_NAMESPACE_VERSION
  55:c:\program files\daisytoolchain\arm-none-eabi\include\c++\10.2.1\bits\basic_string.h **** 
  56:c:\program files\daisytoolchain\arm-none-eabi\include\c++\10.2.1\bits\basic_string.h **** #if _GLIBCXX_USE_CXX11_ABI
  57:c:\program files\daisytoolchain\arm-none-eabi\include\c++\10.2.1\bits\basic_string.h **** _GLIBCXX_BEGIN_NAMESPACE_CXX11
  58:c:\program files\daisytoolchain\arm-none-eabi\include\c++\10.2.1\bits\basic_string.h ****   /**
  59:c:\program files\daisytoolchain\arm-none-eabi\include\c++\10.2.1\bits\basic_string.h ****    *  @class basic_string basic_string.h <string>
  60:c:\program files\daisytoolchain\arm-none-eabi\include\c++\10.2.1\bits\basic_string.h ****    *  @brief  Managing sequences of characters and character-like objects.
  61:c:\program files\daisytoolchain\arm-none-eabi\include\c++\10.2.1\bits\basic_string.h ****    *
  62:c:\program files\daisytoolchain\arm-none-eabi\include\c++\10.2.1\bits\basic_string.h ****    *  @ingroup strings
  63:c:\program files\daisytoolchain\arm-none-eabi\include\c++\10.2.1\bits\basic_string.h ****    *  @ingroup sequences
  64:c:\program files\daisytoolchain\arm-none-eabi\include\c++\10.2.1\bits\basic_string.h ****    *
  65:c:\program files\daisytoolchain\arm-none-eabi\include\c++\10.2.1\bits\basic_string.h ****    *  @tparam _CharT  Type of character
  66:c:\program files\daisytoolchain\arm-none-eabi\include\c++\10.2.1\bits\basic_string.h ****    *  @tparam _Traits  Traits for character type, defaults to
  67:c:\program files\daisytoolchain\arm-none-eabi\include\c++\10.2.1\bits\basic_string.h ****    *                   char_traits<_CharT>.
  68:c:\program files\daisytoolchain\arm-none-eabi\include\c++\10.2.1\bits\basic_string.h ****    *  @tparam _Alloc  Allocator type, defaults to allocator<_CharT>.
  69:c:\program files\daisytoolchain\arm-none-eabi\include\c++\10.2.1\bits\basic_string.h ****    *
  70:c:\program files\daisytoolchain\arm-none-eabi\include\c++\10.2.1\bits\basic_string.h ****    *  Meets the requirements of a <a href="tables.html#65">container</a>, a
  71:c:\program files\daisytoolchain\arm-none-eabi\include\c++\10.2.1\bits\basic_string.h ****    *  <a href="tables.html#66">reversible container</a>, and a
  72:c:\program files\daisytoolchain\arm-none-eabi\include\c++\10.2.1\bits\basic_string.h ****    *  <a href="tables.html#67">sequence</a>.  Of the
  73:c:\program files\daisytoolchain\arm-none-eabi\include\c++\10.2.1\bits\basic_string.h ****    *  <a href="tables.html#68">optional sequence requirements</a>, only
  74:c:\program files\daisytoolchain\arm-none-eabi\include\c++\10.2.1\bits\basic_string.h ****    *  @c push_back, @c at, and @c %array access are supported.
  75:c:\program files\daisytoolchain\arm-none-eabi\include\c++\10.2.1\bits\basic_string.h ****    */
  76:c:\program files\daisytoolchain\arm-none-eabi\include\c++\10.2.1\bits\basic_string.h ****   template<typename _CharT, typename _Traits, typename _Alloc>
ARM GAS  C:\Users\kenji\AppData\Local\Temp\cc5l7BVQ.s 			page 10


  77:c:\program files\daisytoolchain\arm-none-eabi\include\c++\10.2.1\bits\basic_string.h ****     class basic_string
  78:c:\program files\daisytoolchain\arm-none-eabi\include\c++\10.2.1\bits\basic_string.h ****     {
  79:c:\program files\daisytoolchain\arm-none-eabi\include\c++\10.2.1\bits\basic_string.h ****       typedef typename __gnu_cxx::__alloc_traits<_Alloc>::template
  80:c:\program files\daisytoolchain\arm-none-eabi\include\c++\10.2.1\bits\basic_string.h **** 	rebind<_CharT>::other _Char_alloc_type;
  81:c:\program files\daisytoolchain\arm-none-eabi\include\c++\10.2.1\bits\basic_string.h ****       typedef __gnu_cxx::__alloc_traits<_Char_alloc_type> _Alloc_traits;
  82:c:\program files\daisytoolchain\arm-none-eabi\include\c++\10.2.1\bits\basic_string.h **** 
  83:c:\program files\daisytoolchain\arm-none-eabi\include\c++\10.2.1\bits\basic_string.h ****       // Types:
  84:c:\program files\daisytoolchain\arm-none-eabi\include\c++\10.2.1\bits\basic_string.h ****     public:
  85:c:\program files\daisytoolchain\arm-none-eabi\include\c++\10.2.1\bits\basic_string.h ****       typedef _Traits					traits_type;
  86:c:\program files\daisytoolchain\arm-none-eabi\include\c++\10.2.1\bits\basic_string.h ****       typedef typename _Traits::char_type		value_type;
  87:c:\program files\daisytoolchain\arm-none-eabi\include\c++\10.2.1\bits\basic_string.h ****       typedef _Char_alloc_type				allocator_type;
  88:c:\program files\daisytoolchain\arm-none-eabi\include\c++\10.2.1\bits\basic_string.h ****       typedef typename _Alloc_traits::size_type		size_type;
  89:c:\program files\daisytoolchain\arm-none-eabi\include\c++\10.2.1\bits\basic_string.h ****       typedef typename _Alloc_traits::difference_type	difference_type;
  90:c:\program files\daisytoolchain\arm-none-eabi\include\c++\10.2.1\bits\basic_string.h ****       typedef typename _Alloc_traits::reference		reference;
  91:c:\program files\daisytoolchain\arm-none-eabi\include\c++\10.2.1\bits\basic_string.h ****       typedef typename _Alloc_traits::const_reference	const_reference;
  92:c:\program files\daisytoolchain\arm-none-eabi\include\c++\10.2.1\bits\basic_string.h ****       typedef typename _Alloc_traits::pointer		pointer;
  93:c:\program files\daisytoolchain\arm-none-eabi\include\c++\10.2.1\bits\basic_string.h ****       typedef typename _Alloc_traits::const_pointer	const_pointer;
  94:c:\program files\daisytoolchain\arm-none-eabi\include\c++\10.2.1\bits\basic_string.h ****       typedef __gnu_cxx::__normal_iterator<pointer, basic_string>  iterator;
  95:c:\program files\daisytoolchain\arm-none-eabi\include\c++\10.2.1\bits\basic_string.h ****       typedef __gnu_cxx::__normal_iterator<const_pointer, basic_string>
  96:c:\program files\daisytoolchain\arm-none-eabi\include\c++\10.2.1\bits\basic_string.h **** 							const_iterator;
  97:c:\program files\daisytoolchain\arm-none-eabi\include\c++\10.2.1\bits\basic_string.h ****       typedef std::reverse_iterator<const_iterator>	const_reverse_iterator;
  98:c:\program files\daisytoolchain\arm-none-eabi\include\c++\10.2.1\bits\basic_string.h ****       typedef std::reverse_iterator<iterator>		reverse_iterator;
  99:c:\program files\daisytoolchain\arm-none-eabi\include\c++\10.2.1\bits\basic_string.h **** 
 100:c:\program files\daisytoolchain\arm-none-eabi\include\c++\10.2.1\bits\basic_string.h ****       ///  Value returned by various member functions when they fail.
 101:c:\program files\daisytoolchain\arm-none-eabi\include\c++\10.2.1\bits\basic_string.h ****       static const size_type	npos = static_cast<size_type>(-1);
 102:c:\program files\daisytoolchain\arm-none-eabi\include\c++\10.2.1\bits\basic_string.h **** 
 103:c:\program files\daisytoolchain\arm-none-eabi\include\c++\10.2.1\bits\basic_string.h ****     protected:
 104:c:\program files\daisytoolchain\arm-none-eabi\include\c++\10.2.1\bits\basic_string.h ****       // type used for positions in insert, erase etc.
 105:c:\program files\daisytoolchain\arm-none-eabi\include\c++\10.2.1\bits\basic_string.h **** #if __cplusplus < 201103L
 106:c:\program files\daisytoolchain\arm-none-eabi\include\c++\10.2.1\bits\basic_string.h ****       typedef iterator __const_iterator;
 107:c:\program files\daisytoolchain\arm-none-eabi\include\c++\10.2.1\bits\basic_string.h **** #else
 108:c:\program files\daisytoolchain\arm-none-eabi\include\c++\10.2.1\bits\basic_string.h ****       typedef const_iterator __const_iterator;
 109:c:\program files\daisytoolchain\arm-none-eabi\include\c++\10.2.1\bits\basic_string.h **** #endif
 110:c:\program files\daisytoolchain\arm-none-eabi\include\c++\10.2.1\bits\basic_string.h **** 
 111:c:\program files\daisytoolchain\arm-none-eabi\include\c++\10.2.1\bits\basic_string.h ****     private:
 112:c:\program files\daisytoolchain\arm-none-eabi\include\c++\10.2.1\bits\basic_string.h **** #if __cplusplus >= 201703L
 113:c:\program files\daisytoolchain\arm-none-eabi\include\c++\10.2.1\bits\basic_string.h ****       // A helper type for avoiding boiler-plate.
 114:c:\program files\daisytoolchain\arm-none-eabi\include\c++\10.2.1\bits\basic_string.h ****       typedef basic_string_view<_CharT, _Traits> __sv_type;
 115:c:\program files\daisytoolchain\arm-none-eabi\include\c++\10.2.1\bits\basic_string.h **** 
 116:c:\program files\daisytoolchain\arm-none-eabi\include\c++\10.2.1\bits\basic_string.h ****       template<typename _Tp, typename _Res>
 117:c:\program files\daisytoolchain\arm-none-eabi\include\c++\10.2.1\bits\basic_string.h **** 	using _If_sv = enable_if_t<
 118:c:\program files\daisytoolchain\arm-none-eabi\include\c++\10.2.1\bits\basic_string.h **** 	  __and_<is_convertible<const _Tp&, __sv_type>,
 119:c:\program files\daisytoolchain\arm-none-eabi\include\c++\10.2.1\bits\basic_string.h **** 		 __not_<is_convertible<const _Tp*, const basic_string*>>,
 120:c:\program files\daisytoolchain\arm-none-eabi\include\c++\10.2.1\bits\basic_string.h **** 		 __not_<is_convertible<const _Tp&, const _CharT*>>>::value,
 121:c:\program files\daisytoolchain\arm-none-eabi\include\c++\10.2.1\bits\basic_string.h **** 	  _Res>;
 122:c:\program files\daisytoolchain\arm-none-eabi\include\c++\10.2.1\bits\basic_string.h **** 
 123:c:\program files\daisytoolchain\arm-none-eabi\include\c++\10.2.1\bits\basic_string.h ****       // Allows an implicit conversion to __sv_type.
 124:c:\program files\daisytoolchain\arm-none-eabi\include\c++\10.2.1\bits\basic_string.h ****       static __sv_type
 125:c:\program files\daisytoolchain\arm-none-eabi\include\c++\10.2.1\bits\basic_string.h ****       _S_to_string_view(__sv_type __svt) noexcept
 126:c:\program files\daisytoolchain\arm-none-eabi\include\c++\10.2.1\bits\basic_string.h ****       { return __svt; }
 127:c:\program files\daisytoolchain\arm-none-eabi\include\c++\10.2.1\bits\basic_string.h **** 
 128:c:\program files\daisytoolchain\arm-none-eabi\include\c++\10.2.1\bits\basic_string.h ****       // Wraps a string_view by explicit conversion and thus
 129:c:\program files\daisytoolchain\arm-none-eabi\include\c++\10.2.1\bits\basic_string.h ****       // allows to add an internal constructor that does not
 130:c:\program files\daisytoolchain\arm-none-eabi\include\c++\10.2.1\bits\basic_string.h ****       // participate in overload resolution when a string_view
 131:c:\program files\daisytoolchain\arm-none-eabi\include\c++\10.2.1\bits\basic_string.h ****       // is provided.
 132:c:\program files\daisytoolchain\arm-none-eabi\include\c++\10.2.1\bits\basic_string.h ****       struct __sv_wrapper
 133:c:\program files\daisytoolchain\arm-none-eabi\include\c++\10.2.1\bits\basic_string.h ****       {
ARM GAS  C:\Users\kenji\AppData\Local\Temp\cc5l7BVQ.s 			page 11


 134:c:\program files\daisytoolchain\arm-none-eabi\include\c++\10.2.1\bits\basic_string.h **** 	explicit __sv_wrapper(__sv_type __sv) noexcept : _M_sv(__sv) { }
 135:c:\program files\daisytoolchain\arm-none-eabi\include\c++\10.2.1\bits\basic_string.h **** 	__sv_type _M_sv;
 136:c:\program files\daisytoolchain\arm-none-eabi\include\c++\10.2.1\bits\basic_string.h ****       };
 137:c:\program files\daisytoolchain\arm-none-eabi\include\c++\10.2.1\bits\basic_string.h **** 
 138:c:\program files\daisytoolchain\arm-none-eabi\include\c++\10.2.1\bits\basic_string.h ****       /**
 139:c:\program files\daisytoolchain\arm-none-eabi\include\c++\10.2.1\bits\basic_string.h ****        *  @brief  Only internally used: Construct string from a string view
 140:c:\program files\daisytoolchain\arm-none-eabi\include\c++\10.2.1\bits\basic_string.h ****        *          wrapper.
 141:c:\program files\daisytoolchain\arm-none-eabi\include\c++\10.2.1\bits\basic_string.h ****        *  @param  __svw  string view wrapper.
 142:c:\program files\daisytoolchain\arm-none-eabi\include\c++\10.2.1\bits\basic_string.h ****        *  @param  __a  Allocator to use.
 143:c:\program files\daisytoolchain\arm-none-eabi\include\c++\10.2.1\bits\basic_string.h ****        */
 144:c:\program files\daisytoolchain\arm-none-eabi\include\c++\10.2.1\bits\basic_string.h ****       explicit
 145:c:\program files\daisytoolchain\arm-none-eabi\include\c++\10.2.1\bits\basic_string.h ****       basic_string(__sv_wrapper __svw, const _Alloc& __a)
 146:c:\program files\daisytoolchain\arm-none-eabi\include\c++\10.2.1\bits\basic_string.h ****       : basic_string(__svw._M_sv.data(), __svw._M_sv.size(), __a) { }
 147:c:\program files\daisytoolchain\arm-none-eabi\include\c++\10.2.1\bits\basic_string.h **** #endif
 148:c:\program files\daisytoolchain\arm-none-eabi\include\c++\10.2.1\bits\basic_string.h **** 
 149:c:\program files\daisytoolchain\arm-none-eabi\include\c++\10.2.1\bits\basic_string.h ****       // Use empty-base optimization: http://www.cantrip.org/emptyopt.html
 150:c:\program files\daisytoolchain\arm-none-eabi\include\c++\10.2.1\bits\basic_string.h ****       struct _Alloc_hider : allocator_type // TODO check __is_final
 151:c:\program files\daisytoolchain\arm-none-eabi\include\c++\10.2.1\bits\basic_string.h ****       {
 152:c:\program files\daisytoolchain\arm-none-eabi\include\c++\10.2.1\bits\basic_string.h **** #if __cplusplus < 201103L
 153:c:\program files\daisytoolchain\arm-none-eabi\include\c++\10.2.1\bits\basic_string.h **** 	_Alloc_hider(pointer __dat, const _Alloc& __a = _Alloc())
 154:c:\program files\daisytoolchain\arm-none-eabi\include\c++\10.2.1\bits\basic_string.h **** 	: allocator_type(__a), _M_p(__dat) { }
 155:c:\program files\daisytoolchain\arm-none-eabi\include\c++\10.2.1\bits\basic_string.h **** #else
 156:c:\program files\daisytoolchain\arm-none-eabi\include\c++\10.2.1\bits\basic_string.h **** 	_Alloc_hider(pointer __dat, const _Alloc& __a)
 157:c:\program files\daisytoolchain\arm-none-eabi\include\c++\10.2.1\bits\basic_string.h **** 	: allocator_type(__a), _M_p(__dat) { }
 158:c:\program files\daisytoolchain\arm-none-eabi\include\c++\10.2.1\bits\basic_string.h **** 
 159:c:\program files\daisytoolchain\arm-none-eabi\include\c++\10.2.1\bits\basic_string.h **** 	_Alloc_hider(pointer __dat, _Alloc&& __a = _Alloc())
 160:c:\program files\daisytoolchain\arm-none-eabi\include\c++\10.2.1\bits\basic_string.h **** 	: allocator_type(std::move(__a)), _M_p(__dat) { }
 161:c:\program files\daisytoolchain\arm-none-eabi\include\c++\10.2.1\bits\basic_string.h **** #endif
 162:c:\program files\daisytoolchain\arm-none-eabi\include\c++\10.2.1\bits\basic_string.h **** 
 163:c:\program files\daisytoolchain\arm-none-eabi\include\c++\10.2.1\bits\basic_string.h **** 	pointer _M_p; // The actual data.
 164:c:\program files\daisytoolchain\arm-none-eabi\include\c++\10.2.1\bits\basic_string.h ****       };
 165:c:\program files\daisytoolchain\arm-none-eabi\include\c++\10.2.1\bits\basic_string.h **** 
 166:c:\program files\daisytoolchain\arm-none-eabi\include\c++\10.2.1\bits\basic_string.h ****       _Alloc_hider	_M_dataplus;
 167:c:\program files\daisytoolchain\arm-none-eabi\include\c++\10.2.1\bits\basic_string.h ****       size_type		_M_string_length;
 168:c:\program files\daisytoolchain\arm-none-eabi\include\c++\10.2.1\bits\basic_string.h **** 
 169:c:\program files\daisytoolchain\arm-none-eabi\include\c++\10.2.1\bits\basic_string.h ****       enum { _S_local_capacity = 15 / sizeof(_CharT) };
 170:c:\program files\daisytoolchain\arm-none-eabi\include\c++\10.2.1\bits\basic_string.h **** 
 171:c:\program files\daisytoolchain\arm-none-eabi\include\c++\10.2.1\bits\basic_string.h ****       union
 172:c:\program files\daisytoolchain\arm-none-eabi\include\c++\10.2.1\bits\basic_string.h ****       {
 173:c:\program files\daisytoolchain\arm-none-eabi\include\c++\10.2.1\bits\basic_string.h **** 	_CharT           _M_local_buf[_S_local_capacity + 1];
 174:c:\program files\daisytoolchain\arm-none-eabi\include\c++\10.2.1\bits\basic_string.h **** 	size_type        _M_allocated_capacity;
 175:c:\program files\daisytoolchain\arm-none-eabi\include\c++\10.2.1\bits\basic_string.h ****       };
 176:c:\program files\daisytoolchain\arm-none-eabi\include\c++\10.2.1\bits\basic_string.h **** 
 177:c:\program files\daisytoolchain\arm-none-eabi\include\c++\10.2.1\bits\basic_string.h ****       void
 178:c:\program files\daisytoolchain\arm-none-eabi\include\c++\10.2.1\bits\basic_string.h ****       _M_data(pointer __p)
 179:c:\program files\daisytoolchain\arm-none-eabi\include\c++\10.2.1\bits\basic_string.h ****       { _M_dataplus._M_p = __p; }
 180:c:\program files\daisytoolchain\arm-none-eabi\include\c++\10.2.1\bits\basic_string.h **** 
 181:c:\program files\daisytoolchain\arm-none-eabi\include\c++\10.2.1\bits\basic_string.h ****       void
 182:c:\program files\daisytoolchain\arm-none-eabi\include\c++\10.2.1\bits\basic_string.h ****       _M_length(size_type __length)
 183:c:\program files\daisytoolchain\arm-none-eabi\include\c++\10.2.1\bits\basic_string.h ****       { _M_string_length = __length; }
 184:c:\program files\daisytoolchain\arm-none-eabi\include\c++\10.2.1\bits\basic_string.h **** 
 185:c:\program files\daisytoolchain\arm-none-eabi\include\c++\10.2.1\bits\basic_string.h ****       pointer
 186:c:\program files\daisytoolchain\arm-none-eabi\include\c++\10.2.1\bits\basic_string.h ****       _M_data() const
  77              		.loc 3 186 7 is_stmt 1 view .LVU10
  78              	.LBE438:
  79              	.LBB440:
  80              	.LBB441:
ARM GAS  C:\Users\kenji\AppData\Local\Temp\cc5l7BVQ.s 			page 12


  81              	.LBB442:
 187:c:\program files\daisytoolchain\arm-none-eabi\include\c++\10.2.1\bits\basic_string.h ****       { return _M_dataplus._M_p; }
 188:c:\program files\daisytoolchain\arm-none-eabi\include\c++\10.2.1\bits\basic_string.h **** 
 189:c:\program files\daisytoolchain\arm-none-eabi\include\c++\10.2.1\bits\basic_string.h ****       pointer
 190:c:\program files\daisytoolchain\arm-none-eabi\include\c++\10.2.1\bits\basic_string.h ****       _M_local_data()
 191:c:\program files\daisytoolchain\arm-none-eabi\include\c++\10.2.1\bits\basic_string.h ****       {
 192:c:\program files\daisytoolchain\arm-none-eabi\include\c++\10.2.1\bits\basic_string.h **** #if __cplusplus >= 201103L
 193:c:\program files\daisytoolchain\arm-none-eabi\include\c++\10.2.1\bits\basic_string.h **** 	return std::pointer_traits<pointer>::pointer_to(*_M_local_buf);
 194:c:\program files\daisytoolchain\arm-none-eabi\include\c++\10.2.1\bits\basic_string.h **** #else
 195:c:\program files\daisytoolchain\arm-none-eabi\include\c++\10.2.1\bits\basic_string.h **** 	return pointer(_M_local_buf);
 196:c:\program files\daisytoolchain\arm-none-eabi\include\c++\10.2.1\bits\basic_string.h **** #endif
 197:c:\program files\daisytoolchain\arm-none-eabi\include\c++\10.2.1\bits\basic_string.h ****       }
 198:c:\program files\daisytoolchain\arm-none-eabi\include\c++\10.2.1\bits\basic_string.h **** 
 199:c:\program files\daisytoolchain\arm-none-eabi\include\c++\10.2.1\bits\basic_string.h ****       const_pointer
 200:c:\program files\daisytoolchain\arm-none-eabi\include\c++\10.2.1\bits\basic_string.h ****       _M_local_data() const
 201:c:\program files\daisytoolchain\arm-none-eabi\include\c++\10.2.1\bits\basic_string.h ****       {
 202:c:\program files\daisytoolchain\arm-none-eabi\include\c++\10.2.1\bits\basic_string.h **** #if __cplusplus >= 201103L
 203:c:\program files\daisytoolchain\arm-none-eabi\include\c++\10.2.1\bits\basic_string.h **** 	return std::pointer_traits<const_pointer>::pointer_to(*_M_local_buf);
 204:c:\program files\daisytoolchain\arm-none-eabi\include\c++\10.2.1\bits\basic_string.h **** #else
 205:c:\program files\daisytoolchain\arm-none-eabi\include\c++\10.2.1\bits\basic_string.h **** 	return const_pointer(_M_local_buf);
 206:c:\program files\daisytoolchain\arm-none-eabi\include\c++\10.2.1\bits\basic_string.h **** #endif
 207:c:\program files\daisytoolchain\arm-none-eabi\include\c++\10.2.1\bits\basic_string.h ****       }
 208:c:\program files\daisytoolchain\arm-none-eabi\include\c++\10.2.1\bits\basic_string.h **** 
 209:c:\program files\daisytoolchain\arm-none-eabi\include\c++\10.2.1\bits\basic_string.h ****       void
 210:c:\program files\daisytoolchain\arm-none-eabi\include\c++\10.2.1\bits\basic_string.h ****       _M_capacity(size_type __capacity)
 211:c:\program files\daisytoolchain\arm-none-eabi\include\c++\10.2.1\bits\basic_string.h ****       { _M_allocated_capacity = __capacity; }
 212:c:\program files\daisytoolchain\arm-none-eabi\include\c++\10.2.1\bits\basic_string.h **** 
 213:c:\program files\daisytoolchain\arm-none-eabi\include\c++\10.2.1\bits\basic_string.h ****       void
 214:c:\program files\daisytoolchain\arm-none-eabi\include\c++\10.2.1\bits\basic_string.h ****       _M_set_length(size_type __n)
 215:c:\program files\daisytoolchain\arm-none-eabi\include\c++\10.2.1\bits\basic_string.h ****       {
 216:c:\program files\daisytoolchain\arm-none-eabi\include\c++\10.2.1\bits\basic_string.h **** 	_M_length(__n);
 217:c:\program files\daisytoolchain\arm-none-eabi\include\c++\10.2.1\bits\basic_string.h **** 	traits_type::assign(_M_data()[__n], _CharT());
 218:c:\program files\daisytoolchain\arm-none-eabi\include\c++\10.2.1\bits\basic_string.h ****       }
 219:c:\program files\daisytoolchain\arm-none-eabi\include\c++\10.2.1\bits\basic_string.h **** 
 220:c:\program files\daisytoolchain\arm-none-eabi\include\c++\10.2.1\bits\basic_string.h ****       bool
 221:c:\program files\daisytoolchain\arm-none-eabi\include\c++\10.2.1\bits\basic_string.h ****       _M_is_local() const
 222:c:\program files\daisytoolchain\arm-none-eabi\include\c++\10.2.1\bits\basic_string.h ****       { return _M_data() == _M_local_data(); }
 223:c:\program files\daisytoolchain\arm-none-eabi\include\c++\10.2.1\bits\basic_string.h **** 
 224:c:\program files\daisytoolchain\arm-none-eabi\include\c++\10.2.1\bits\basic_string.h ****       // Create & Destroy
 225:c:\program files\daisytoolchain\arm-none-eabi\include\c++\10.2.1\bits\basic_string.h ****       pointer
 226:c:\program files\daisytoolchain\arm-none-eabi\include\c++\10.2.1\bits\basic_string.h ****       _M_create(size_type&, size_type);
 227:c:\program files\daisytoolchain\arm-none-eabi\include\c++\10.2.1\bits\basic_string.h **** 
 228:c:\program files\daisytoolchain\arm-none-eabi\include\c++\10.2.1\bits\basic_string.h ****       void
 229:c:\program files\daisytoolchain\arm-none-eabi\include\c++\10.2.1\bits\basic_string.h ****       _M_dispose()
 230:c:\program files\daisytoolchain\arm-none-eabi\include\c++\10.2.1\bits\basic_string.h ****       {
 231:c:\program files\daisytoolchain\arm-none-eabi\include\c++\10.2.1\bits\basic_string.h **** 	if (!_M_is_local())
 232:c:\program files\daisytoolchain\arm-none-eabi\include\c++\10.2.1\bits\basic_string.h **** 	  _M_destroy(_M_allocated_capacity);
 233:c:\program files\daisytoolchain\arm-none-eabi\include\c++\10.2.1\bits\basic_string.h ****       }
 234:c:\program files\daisytoolchain\arm-none-eabi\include\c++\10.2.1\bits\basic_string.h **** 
 235:c:\program files\daisytoolchain\arm-none-eabi\include\c++\10.2.1\bits\basic_string.h ****       void
 236:c:\program files\daisytoolchain\arm-none-eabi\include\c++\10.2.1\bits\basic_string.h ****       _M_destroy(size_type __size) throw()
 237:c:\program files\daisytoolchain\arm-none-eabi\include\c++\10.2.1\bits\basic_string.h ****       { _Alloc_traits::deallocate(_M_get_allocator(), _M_data(), __size + 1); }
 238:c:\program files\daisytoolchain\arm-none-eabi\include\c++\10.2.1\bits\basic_string.h **** 
 239:c:\program files\daisytoolchain\arm-none-eabi\include\c++\10.2.1\bits\basic_string.h ****       // _M_construct_aux is used to implement the 21.3.1 para 15 which
 240:c:\program files\daisytoolchain\arm-none-eabi\include\c++\10.2.1\bits\basic_string.h ****       // requires special behaviour if _InIterator is an integral type
 241:c:\program files\daisytoolchain\arm-none-eabi\include\c++\10.2.1\bits\basic_string.h ****       template<typename _InIterator>
 242:c:\program files\daisytoolchain\arm-none-eabi\include\c++\10.2.1\bits\basic_string.h ****         void
ARM GAS  C:\Users\kenji\AppData\Local\Temp\cc5l7BVQ.s 			page 13


 243:c:\program files\daisytoolchain\arm-none-eabi\include\c++\10.2.1\bits\basic_string.h ****         _M_construct_aux(_InIterator __beg, _InIterator __end,
 244:c:\program files\daisytoolchain\arm-none-eabi\include\c++\10.2.1\bits\basic_string.h **** 			 std::__false_type)
 245:c:\program files\daisytoolchain\arm-none-eabi\include\c++\10.2.1\bits\basic_string.h **** 	{
 246:c:\program files\daisytoolchain\arm-none-eabi\include\c++\10.2.1\bits\basic_string.h ****           typedef typename iterator_traits<_InIterator>::iterator_category _Tag;
 247:c:\program files\daisytoolchain\arm-none-eabi\include\c++\10.2.1\bits\basic_string.h ****           _M_construct(__beg, __end, _Tag());
 248:c:\program files\daisytoolchain\arm-none-eabi\include\c++\10.2.1\bits\basic_string.h **** 	}
 249:c:\program files\daisytoolchain\arm-none-eabi\include\c++\10.2.1\bits\basic_string.h **** 
 250:c:\program files\daisytoolchain\arm-none-eabi\include\c++\10.2.1\bits\basic_string.h ****       // _GLIBCXX_RESOLVE_LIB_DEFECTS
 251:c:\program files\daisytoolchain\arm-none-eabi\include\c++\10.2.1\bits\basic_string.h ****       // 438. Ambiguity in the "do the right thing" clause
 252:c:\program files\daisytoolchain\arm-none-eabi\include\c++\10.2.1\bits\basic_string.h ****       template<typename _Integer>
 253:c:\program files\daisytoolchain\arm-none-eabi\include\c++\10.2.1\bits\basic_string.h ****         void
 254:c:\program files\daisytoolchain\arm-none-eabi\include\c++\10.2.1\bits\basic_string.h ****         _M_construct_aux(_Integer __beg, _Integer __end, std::__true_type)
 255:c:\program files\daisytoolchain\arm-none-eabi\include\c++\10.2.1\bits\basic_string.h **** 	{ _M_construct_aux_2(static_cast<size_type>(__beg), __end); }
 256:c:\program files\daisytoolchain\arm-none-eabi\include\c++\10.2.1\bits\basic_string.h **** 
 257:c:\program files\daisytoolchain\arm-none-eabi\include\c++\10.2.1\bits\basic_string.h ****       void
 258:c:\program files\daisytoolchain\arm-none-eabi\include\c++\10.2.1\bits\basic_string.h ****       _M_construct_aux_2(size_type __req, _CharT __c)
 259:c:\program files\daisytoolchain\arm-none-eabi\include\c++\10.2.1\bits\basic_string.h ****       { _M_construct(__req, __c); }
 260:c:\program files\daisytoolchain\arm-none-eabi\include\c++\10.2.1\bits\basic_string.h **** 
 261:c:\program files\daisytoolchain\arm-none-eabi\include\c++\10.2.1\bits\basic_string.h ****       template<typename _InIterator>
 262:c:\program files\daisytoolchain\arm-none-eabi\include\c++\10.2.1\bits\basic_string.h ****         void
 263:c:\program files\daisytoolchain\arm-none-eabi\include\c++\10.2.1\bits\basic_string.h ****         _M_construct(_InIterator __beg, _InIterator __end)
 264:c:\program files\daisytoolchain\arm-none-eabi\include\c++\10.2.1\bits\basic_string.h **** 	{
 265:c:\program files\daisytoolchain\arm-none-eabi\include\c++\10.2.1\bits\basic_string.h **** 	  typedef typename std::__is_integer<_InIterator>::__type _Integral;
 266:c:\program files\daisytoolchain\arm-none-eabi\include\c++\10.2.1\bits\basic_string.h **** 	  _M_construct_aux(__beg, __end, _Integral());
 267:c:\program files\daisytoolchain\arm-none-eabi\include\c++\10.2.1\bits\basic_string.h ****         }
 268:c:\program files\daisytoolchain\arm-none-eabi\include\c++\10.2.1\bits\basic_string.h **** 
 269:c:\program files\daisytoolchain\arm-none-eabi\include\c++\10.2.1\bits\basic_string.h ****       // For Input Iterators, used in istreambuf_iterators, etc.
 270:c:\program files\daisytoolchain\arm-none-eabi\include\c++\10.2.1\bits\basic_string.h ****       template<typename _InIterator>
 271:c:\program files\daisytoolchain\arm-none-eabi\include\c++\10.2.1\bits\basic_string.h ****         void
 272:c:\program files\daisytoolchain\arm-none-eabi\include\c++\10.2.1\bits\basic_string.h ****         _M_construct(_InIterator __beg, _InIterator __end,
 273:c:\program files\daisytoolchain\arm-none-eabi\include\c++\10.2.1\bits\basic_string.h **** 		     std::input_iterator_tag);
 274:c:\program files\daisytoolchain\arm-none-eabi\include\c++\10.2.1\bits\basic_string.h **** 
 275:c:\program files\daisytoolchain\arm-none-eabi\include\c++\10.2.1\bits\basic_string.h ****       // For forward_iterators up to random_access_iterators, used for
 276:c:\program files\daisytoolchain\arm-none-eabi\include\c++\10.2.1\bits\basic_string.h ****       // string::iterator, _CharT*, etc.
 277:c:\program files\daisytoolchain\arm-none-eabi\include\c++\10.2.1\bits\basic_string.h ****       template<typename _FwdIterator>
 278:c:\program files\daisytoolchain\arm-none-eabi\include\c++\10.2.1\bits\basic_string.h ****         void
 279:c:\program files\daisytoolchain\arm-none-eabi\include\c++\10.2.1\bits\basic_string.h ****         _M_construct(_FwdIterator __beg, _FwdIterator __end,
 280:c:\program files\daisytoolchain\arm-none-eabi\include\c++\10.2.1\bits\basic_string.h **** 		     std::forward_iterator_tag);
 281:c:\program files\daisytoolchain\arm-none-eabi\include\c++\10.2.1\bits\basic_string.h **** 
 282:c:\program files\daisytoolchain\arm-none-eabi\include\c++\10.2.1\bits\basic_string.h ****       void
 283:c:\program files\daisytoolchain\arm-none-eabi\include\c++\10.2.1\bits\basic_string.h ****       _M_construct(size_type __req, _CharT __c);
 284:c:\program files\daisytoolchain\arm-none-eabi\include\c++\10.2.1\bits\basic_string.h **** 
 285:c:\program files\daisytoolchain\arm-none-eabi\include\c++\10.2.1\bits\basic_string.h ****       allocator_type&
 286:c:\program files\daisytoolchain\arm-none-eabi\include\c++\10.2.1\bits\basic_string.h ****       _M_get_allocator()
 287:c:\program files\daisytoolchain\arm-none-eabi\include\c++\10.2.1\bits\basic_string.h ****       { return _M_dataplus; }
 288:c:\program files\daisytoolchain\arm-none-eabi\include\c++\10.2.1\bits\basic_string.h **** 
 289:c:\program files\daisytoolchain\arm-none-eabi\include\c++\10.2.1\bits\basic_string.h ****       const allocator_type&
 290:c:\program files\daisytoolchain\arm-none-eabi\include\c++\10.2.1\bits\basic_string.h ****       _M_get_allocator() const
 291:c:\program files\daisytoolchain\arm-none-eabi\include\c++\10.2.1\bits\basic_string.h ****       { return _M_dataplus; }
 292:c:\program files\daisytoolchain\arm-none-eabi\include\c++\10.2.1\bits\basic_string.h **** 
 293:c:\program files\daisytoolchain\arm-none-eabi\include\c++\10.2.1\bits\basic_string.h ****     private:
 294:c:\program files\daisytoolchain\arm-none-eabi\include\c++\10.2.1\bits\basic_string.h **** 
 295:c:\program files\daisytoolchain\arm-none-eabi\include\c++\10.2.1\bits\basic_string.h **** #ifdef _GLIBCXX_DISAMBIGUATE_REPLACE_INST
 296:c:\program files\daisytoolchain\arm-none-eabi\include\c++\10.2.1\bits\basic_string.h ****       // The explicit instantiations in misc-inst.cc require this due to
 297:c:\program files\daisytoolchain\arm-none-eabi\include\c++\10.2.1\bits\basic_string.h ****       // https://gcc.gnu.org/bugzilla/show_bug.cgi?id=64063
 298:c:\program files\daisytoolchain\arm-none-eabi\include\c++\10.2.1\bits\basic_string.h ****       template<typename _Tp, bool _Requires =
 299:c:\program files\daisytoolchain\arm-none-eabi\include\c++\10.2.1\bits\basic_string.h **** 	       !__are_same<_Tp, _CharT*>::__value
ARM GAS  C:\Users\kenji\AppData\Local\Temp\cc5l7BVQ.s 			page 14


 300:c:\program files\daisytoolchain\arm-none-eabi\include\c++\10.2.1\bits\basic_string.h **** 	       && !__are_same<_Tp, const _CharT*>::__value
 301:c:\program files\daisytoolchain\arm-none-eabi\include\c++\10.2.1\bits\basic_string.h **** 	       && !__are_same<_Tp, iterator>::__value
 302:c:\program files\daisytoolchain\arm-none-eabi\include\c++\10.2.1\bits\basic_string.h **** 	       && !__are_same<_Tp, const_iterator>::__value>
 303:c:\program files\daisytoolchain\arm-none-eabi\include\c++\10.2.1\bits\basic_string.h **** 	struct __enable_if_not_native_iterator
 304:c:\program files\daisytoolchain\arm-none-eabi\include\c++\10.2.1\bits\basic_string.h **** 	{ typedef basic_string& __type; };
 305:c:\program files\daisytoolchain\arm-none-eabi\include\c++\10.2.1\bits\basic_string.h ****       template<typename _Tp>
 306:c:\program files\daisytoolchain\arm-none-eabi\include\c++\10.2.1\bits\basic_string.h **** 	struct __enable_if_not_native_iterator<_Tp, false> { };
 307:c:\program files\daisytoolchain\arm-none-eabi\include\c++\10.2.1\bits\basic_string.h **** #endif
 308:c:\program files\daisytoolchain\arm-none-eabi\include\c++\10.2.1\bits\basic_string.h **** 
 309:c:\program files\daisytoolchain\arm-none-eabi\include\c++\10.2.1\bits\basic_string.h ****       size_type
 310:c:\program files\daisytoolchain\arm-none-eabi\include\c++\10.2.1\bits\basic_string.h ****       _M_check(size_type __pos, const char* __s) const
 311:c:\program files\daisytoolchain\arm-none-eabi\include\c++\10.2.1\bits\basic_string.h ****       {
 312:c:\program files\daisytoolchain\arm-none-eabi\include\c++\10.2.1\bits\basic_string.h **** 	if (__pos > this->size())
 313:c:\program files\daisytoolchain\arm-none-eabi\include\c++\10.2.1\bits\basic_string.h **** 	  __throw_out_of_range_fmt(__N("%s: __pos (which is %zu) > "
 314:c:\program files\daisytoolchain\arm-none-eabi\include\c++\10.2.1\bits\basic_string.h **** 				       "this->size() (which is %zu)"),
 315:c:\program files\daisytoolchain\arm-none-eabi\include\c++\10.2.1\bits\basic_string.h **** 				   __s, __pos, this->size());
 316:c:\program files\daisytoolchain\arm-none-eabi\include\c++\10.2.1\bits\basic_string.h **** 	return __pos;
 317:c:\program files\daisytoolchain\arm-none-eabi\include\c++\10.2.1\bits\basic_string.h ****       }
 318:c:\program files\daisytoolchain\arm-none-eabi\include\c++\10.2.1\bits\basic_string.h **** 
 319:c:\program files\daisytoolchain\arm-none-eabi\include\c++\10.2.1\bits\basic_string.h ****       void
 320:c:\program files\daisytoolchain\arm-none-eabi\include\c++\10.2.1\bits\basic_string.h ****       _M_check_length(size_type __n1, size_type __n2, const char* __s) const
 321:c:\program files\daisytoolchain\arm-none-eabi\include\c++\10.2.1\bits\basic_string.h ****       {
 322:c:\program files\daisytoolchain\arm-none-eabi\include\c++\10.2.1\bits\basic_string.h **** 	if (this->max_size() - (this->size() - __n1) < __n2)
 323:c:\program files\daisytoolchain\arm-none-eabi\include\c++\10.2.1\bits\basic_string.h **** 	  __throw_length_error(__N(__s));
 324:c:\program files\daisytoolchain\arm-none-eabi\include\c++\10.2.1\bits\basic_string.h ****       }
 325:c:\program files\daisytoolchain\arm-none-eabi\include\c++\10.2.1\bits\basic_string.h **** 
 326:c:\program files\daisytoolchain\arm-none-eabi\include\c++\10.2.1\bits\basic_string.h **** 
 327:c:\program files\daisytoolchain\arm-none-eabi\include\c++\10.2.1\bits\basic_string.h ****       // NB: _M_limit doesn't check for a bad __pos value.
 328:c:\program files\daisytoolchain\arm-none-eabi\include\c++\10.2.1\bits\basic_string.h ****       size_type
 329:c:\program files\daisytoolchain\arm-none-eabi\include\c++\10.2.1\bits\basic_string.h ****       _M_limit(size_type __pos, size_type __off) const _GLIBCXX_NOEXCEPT
 330:c:\program files\daisytoolchain\arm-none-eabi\include\c++\10.2.1\bits\basic_string.h ****       {
 331:c:\program files\daisytoolchain\arm-none-eabi\include\c++\10.2.1\bits\basic_string.h **** 	const bool __testoff =  __off < this->size() - __pos;
 332:c:\program files\daisytoolchain\arm-none-eabi\include\c++\10.2.1\bits\basic_string.h **** 	return __testoff ? __off : this->size() - __pos;
 333:c:\program files\daisytoolchain\arm-none-eabi\include\c++\10.2.1\bits\basic_string.h ****       }
 334:c:\program files\daisytoolchain\arm-none-eabi\include\c++\10.2.1\bits\basic_string.h **** 
 335:c:\program files\daisytoolchain\arm-none-eabi\include\c++\10.2.1\bits\basic_string.h ****       // True if _Rep and source do not overlap.
 336:c:\program files\daisytoolchain\arm-none-eabi\include\c++\10.2.1\bits\basic_string.h ****       bool
 337:c:\program files\daisytoolchain\arm-none-eabi\include\c++\10.2.1\bits\basic_string.h ****       _M_disjunct(const _CharT* __s) const _GLIBCXX_NOEXCEPT
 338:c:\program files\daisytoolchain\arm-none-eabi\include\c++\10.2.1\bits\basic_string.h ****       {
 339:c:\program files\daisytoolchain\arm-none-eabi\include\c++\10.2.1\bits\basic_string.h **** 	return (less<const _CharT*>()(__s, _M_data())
 340:c:\program files\daisytoolchain\arm-none-eabi\include\c++\10.2.1\bits\basic_string.h **** 		|| less<const _CharT*>()(_M_data() + this->size(), __s));
 341:c:\program files\daisytoolchain\arm-none-eabi\include\c++\10.2.1\bits\basic_string.h ****       }
 342:c:\program files\daisytoolchain\arm-none-eabi\include\c++\10.2.1\bits\basic_string.h **** 
 343:c:\program files\daisytoolchain\arm-none-eabi\include\c++\10.2.1\bits\basic_string.h ****       // When __n = 1 way faster than the general multichar
 344:c:\program files\daisytoolchain\arm-none-eabi\include\c++\10.2.1\bits\basic_string.h ****       // traits_type::copy/move/assign.
 345:c:\program files\daisytoolchain\arm-none-eabi\include\c++\10.2.1\bits\basic_string.h ****       static void
 346:c:\program files\daisytoolchain\arm-none-eabi\include\c++\10.2.1\bits\basic_string.h ****       _S_copy(_CharT* __d, const _CharT* __s, size_type __n)
 347:c:\program files\daisytoolchain\arm-none-eabi\include\c++\10.2.1\bits\basic_string.h ****       {
 348:c:\program files\daisytoolchain\arm-none-eabi\include\c++\10.2.1\bits\basic_string.h **** 	if (__n == 1)
  82              		.loc 3 348 2 is_stmt 0 view .LVU11
  83 0014 012C     		cmp	r4, #1
  84              	.LBE442:
  85              	.LBE441:
  86              	.LBE440:
  87              	.LBB462:
  88              	.LBB439:
 187:c:\program files\daisytoolchain\arm-none-eabi\include\c++\10.2.1\bits\basic_string.h ****       { return _M_dataplus._M_p; }
ARM GAS  C:\Users\kenji\AppData\Local\Temp\cc5l7BVQ.s 			page 15


  89              		.loc 3 187 28 view .LVU12
  90 0016 2868     		ldr	r0, [r5]
  91              	.LVL3:
 187:c:\program files\daisytoolchain\arm-none-eabi\include\c++\10.2.1\bits\basic_string.h ****       { return _M_dataplus._M_p; }
  92              		.loc 3 187 28 view .LVU13
  93              	.LBE439:
  94              	.LBE462:
  95              	.LBB463:
  96              	.LBI440:
 349:c:\program files\daisytoolchain\arm-none-eabi\include\c++\10.2.1\bits\basic_string.h **** 	  traits_type::assign(*__d, *__s);
 350:c:\program files\daisytoolchain\arm-none-eabi\include\c++\10.2.1\bits\basic_string.h **** 	else
 351:c:\program files\daisytoolchain\arm-none-eabi\include\c++\10.2.1\bits\basic_string.h **** 	  traits_type::copy(__d, __s, __n);
 352:c:\program files\daisytoolchain\arm-none-eabi\include\c++\10.2.1\bits\basic_string.h ****       }
 353:c:\program files\daisytoolchain\arm-none-eabi\include\c++\10.2.1\bits\basic_string.h **** 
 354:c:\program files\daisytoolchain\arm-none-eabi\include\c++\10.2.1\bits\basic_string.h ****       static void
 355:c:\program files\daisytoolchain\arm-none-eabi\include\c++\10.2.1\bits\basic_string.h ****       _S_move(_CharT* __d, const _CharT* __s, size_type __n)
 356:c:\program files\daisytoolchain\arm-none-eabi\include\c++\10.2.1\bits\basic_string.h ****       {
 357:c:\program files\daisytoolchain\arm-none-eabi\include\c++\10.2.1\bits\basic_string.h **** 	if (__n == 1)
 358:c:\program files\daisytoolchain\arm-none-eabi\include\c++\10.2.1\bits\basic_string.h **** 	  traits_type::assign(*__d, *__s);
 359:c:\program files\daisytoolchain\arm-none-eabi\include\c++\10.2.1\bits\basic_string.h **** 	else
 360:c:\program files\daisytoolchain\arm-none-eabi\include\c++\10.2.1\bits\basic_string.h **** 	  traits_type::move(__d, __s, __n);
 361:c:\program files\daisytoolchain\arm-none-eabi\include\c++\10.2.1\bits\basic_string.h ****       }
 362:c:\program files\daisytoolchain\arm-none-eabi\include\c++\10.2.1\bits\basic_string.h **** 
 363:c:\program files\daisytoolchain\arm-none-eabi\include\c++\10.2.1\bits\basic_string.h ****       static void
 364:c:\program files\daisytoolchain\arm-none-eabi\include\c++\10.2.1\bits\basic_string.h ****       _S_assign(_CharT* __d, size_type __n, _CharT __c)
 365:c:\program files\daisytoolchain\arm-none-eabi\include\c++\10.2.1\bits\basic_string.h ****       {
 366:c:\program files\daisytoolchain\arm-none-eabi\include\c++\10.2.1\bits\basic_string.h **** 	if (__n == 1)
 367:c:\program files\daisytoolchain\arm-none-eabi\include\c++\10.2.1\bits\basic_string.h **** 	  traits_type::assign(*__d, __c);
 368:c:\program files\daisytoolchain\arm-none-eabi\include\c++\10.2.1\bits\basic_string.h **** 	else
 369:c:\program files\daisytoolchain\arm-none-eabi\include\c++\10.2.1\bits\basic_string.h **** 	  traits_type::assign(__d, __n, __c);
 370:c:\program files\daisytoolchain\arm-none-eabi\include\c++\10.2.1\bits\basic_string.h ****       }
 371:c:\program files\daisytoolchain\arm-none-eabi\include\c++\10.2.1\bits\basic_string.h **** 
 372:c:\program files\daisytoolchain\arm-none-eabi\include\c++\10.2.1\bits\basic_string.h ****       // _S_copy_chars is a separate template to permit specialization
 373:c:\program files\daisytoolchain\arm-none-eabi\include\c++\10.2.1\bits\basic_string.h ****       // to optimize for the common case of pointers as iterators.
 374:c:\program files\daisytoolchain\arm-none-eabi\include\c++\10.2.1\bits\basic_string.h ****       template<class _Iterator>
 375:c:\program files\daisytoolchain\arm-none-eabi\include\c++\10.2.1\bits\basic_string.h ****         static void
 376:c:\program files\daisytoolchain\arm-none-eabi\include\c++\10.2.1\bits\basic_string.h ****         _S_copy_chars(_CharT* __p, _Iterator __k1, _Iterator __k2)
 377:c:\program files\daisytoolchain\arm-none-eabi\include\c++\10.2.1\bits\basic_string.h ****         {
 378:c:\program files\daisytoolchain\arm-none-eabi\include\c++\10.2.1\bits\basic_string.h **** 	  for (; __k1 != __k2; ++__k1, (void)++__p)
 379:c:\program files\daisytoolchain\arm-none-eabi\include\c++\10.2.1\bits\basic_string.h **** 	    traits_type::assign(*__p, *__k1); // These types are off.
 380:c:\program files\daisytoolchain\arm-none-eabi\include\c++\10.2.1\bits\basic_string.h **** 	}
 381:c:\program files\daisytoolchain\arm-none-eabi\include\c++\10.2.1\bits\basic_string.h **** 
 382:c:\program files\daisytoolchain\arm-none-eabi\include\c++\10.2.1\bits\basic_string.h ****       static void
 383:c:\program files\daisytoolchain\arm-none-eabi\include\c++\10.2.1\bits\basic_string.h ****       _S_copy_chars(_CharT* __p, iterator __k1, iterator __k2) _GLIBCXX_NOEXCEPT
 384:c:\program files\daisytoolchain\arm-none-eabi\include\c++\10.2.1\bits\basic_string.h ****       { _S_copy_chars(__p, __k1.base(), __k2.base()); }
 385:c:\program files\daisytoolchain\arm-none-eabi\include\c++\10.2.1\bits\basic_string.h **** 
 386:c:\program files\daisytoolchain\arm-none-eabi\include\c++\10.2.1\bits\basic_string.h ****       static void
 387:c:\program files\daisytoolchain\arm-none-eabi\include\c++\10.2.1\bits\basic_string.h ****       _S_copy_chars(_CharT* __p, const_iterator __k1, const_iterator __k2)
 388:c:\program files\daisytoolchain\arm-none-eabi\include\c++\10.2.1\bits\basic_string.h ****       _GLIBCXX_NOEXCEPT
 389:c:\program files\daisytoolchain\arm-none-eabi\include\c++\10.2.1\bits\basic_string.h ****       { _S_copy_chars(__p, __k1.base(), __k2.base()); }
 390:c:\program files\daisytoolchain\arm-none-eabi\include\c++\10.2.1\bits\basic_string.h **** 
 391:c:\program files\daisytoolchain\arm-none-eabi\include\c++\10.2.1\bits\basic_string.h ****       static void
 392:c:\program files\daisytoolchain\arm-none-eabi\include\c++\10.2.1\bits\basic_string.h ****       _S_copy_chars(_CharT* __p, _CharT* __k1, _CharT* __k2) _GLIBCXX_NOEXCEPT
 393:c:\program files\daisytoolchain\arm-none-eabi\include\c++\10.2.1\bits\basic_string.h ****       { _S_copy(__p, __k1, __k2 - __k1); }
 394:c:\program files\daisytoolchain\arm-none-eabi\include\c++\10.2.1\bits\basic_string.h **** 
 395:c:\program files\daisytoolchain\arm-none-eabi\include\c++\10.2.1\bits\basic_string.h ****       static void
 396:c:\program files\daisytoolchain\arm-none-eabi\include\c++\10.2.1\bits\basic_string.h ****       _S_copy_chars(_CharT* __p, const _CharT* __k1, const _CharT* __k2)
ARM GAS  C:\Users\kenji\AppData\Local\Temp\cc5l7BVQ.s 			page 16


  97              		.loc 3 396 7 is_stmt 1 view .LVU14
  98              	.LBB458:
  99              	.LBI441:
 346:c:\program files\daisytoolchain\arm-none-eabi\include\c++\10.2.1\bits\basic_string.h ****       {
 100              		.loc 3 346 7 view .LVU15
 101              	.LBB454:
 348:c:\program files\daisytoolchain\arm-none-eabi\include\c++\10.2.1\bits\basic_string.h **** 	  traits_type::assign(*__d, *__s);
 102              		.loc 3 348 2 is_stmt 0 view .LVU16
 103 0018 08D1     		bne	.L5
 104              	.LVL4:
 105              	.LBB443:
 106              	.LBI443:
 107              		.file 4 "c:\\program files\\daisytoolchain\\arm-none-eabi\\include\\c++\\10.2.1\\bits\\char_traits
   1:c:\program files\daisytoolchain\arm-none-eabi\include\c++\10.2.1\bits\char_traits.h **** // Character Traits for use by standard string and iostream -*- C++ -*-
   2:c:\program files\daisytoolchain\arm-none-eabi\include\c++\10.2.1\bits\char_traits.h **** 
   3:c:\program files\daisytoolchain\arm-none-eabi\include\c++\10.2.1\bits\char_traits.h **** // Copyright (C) 1997-2020 Free Software Foundation, Inc.
   4:c:\program files\daisytoolchain\arm-none-eabi\include\c++\10.2.1\bits\char_traits.h **** //
   5:c:\program files\daisytoolchain\arm-none-eabi\include\c++\10.2.1\bits\char_traits.h **** // This file is part of the GNU ISO C++ Library.  This library is free
   6:c:\program files\daisytoolchain\arm-none-eabi\include\c++\10.2.1\bits\char_traits.h **** // software; you can redistribute it and/or modify it under the
   7:c:\program files\daisytoolchain\arm-none-eabi\include\c++\10.2.1\bits\char_traits.h **** // terms of the GNU General Public License as published by the
   8:c:\program files\daisytoolchain\arm-none-eabi\include\c++\10.2.1\bits\char_traits.h **** // Free Software Foundation; either version 3, or (at your option)
   9:c:\program files\daisytoolchain\arm-none-eabi\include\c++\10.2.1\bits\char_traits.h **** // any later version.
  10:c:\program files\daisytoolchain\arm-none-eabi\include\c++\10.2.1\bits\char_traits.h **** 
  11:c:\program files\daisytoolchain\arm-none-eabi\include\c++\10.2.1\bits\char_traits.h **** // This library is distributed in the hope that it will be useful,
  12:c:\program files\daisytoolchain\arm-none-eabi\include\c++\10.2.1\bits\char_traits.h **** // but WITHOUT ANY WARRANTY; without even the implied warranty of
  13:c:\program files\daisytoolchain\arm-none-eabi\include\c++\10.2.1\bits\char_traits.h **** // MERCHANTABILITY or FITNESS FOR A PARTICULAR PURPOSE.  See the
  14:c:\program files\daisytoolchain\arm-none-eabi\include\c++\10.2.1\bits\char_traits.h **** // GNU General Public License for more details.
  15:c:\program files\daisytoolchain\arm-none-eabi\include\c++\10.2.1\bits\char_traits.h **** 
  16:c:\program files\daisytoolchain\arm-none-eabi\include\c++\10.2.1\bits\char_traits.h **** // Under Section 7 of GPL version 3, you are granted additional
  17:c:\program files\daisytoolchain\arm-none-eabi\include\c++\10.2.1\bits\char_traits.h **** // permissions described in the GCC Runtime Library Exception, version
  18:c:\program files\daisytoolchain\arm-none-eabi\include\c++\10.2.1\bits\char_traits.h **** // 3.1, as published by the Free Software Foundation.
  19:c:\program files\daisytoolchain\arm-none-eabi\include\c++\10.2.1\bits\char_traits.h **** 
  20:c:\program files\daisytoolchain\arm-none-eabi\include\c++\10.2.1\bits\char_traits.h **** // You should have received a copy of the GNU General Public License and
  21:c:\program files\daisytoolchain\arm-none-eabi\include\c++\10.2.1\bits\char_traits.h **** // a copy of the GCC Runtime Library Exception along with this program;
  22:c:\program files\daisytoolchain\arm-none-eabi\include\c++\10.2.1\bits\char_traits.h **** // see the files COPYING3 and COPYING.RUNTIME respectively.  If not, see
  23:c:\program files\daisytoolchain\arm-none-eabi\include\c++\10.2.1\bits\char_traits.h **** // <http://www.gnu.org/licenses/>.
  24:c:\program files\daisytoolchain\arm-none-eabi\include\c++\10.2.1\bits\char_traits.h **** 
  25:c:\program files\daisytoolchain\arm-none-eabi\include\c++\10.2.1\bits\char_traits.h **** /** @file bits/char_traits.h
  26:c:\program files\daisytoolchain\arm-none-eabi\include\c++\10.2.1\bits\char_traits.h ****  *  This is an internal header file, included by other library headers.
  27:c:\program files\daisytoolchain\arm-none-eabi\include\c++\10.2.1\bits\char_traits.h ****  *  Do not attempt to use it directly. @headername{string}
  28:c:\program files\daisytoolchain\arm-none-eabi\include\c++\10.2.1\bits\char_traits.h ****  */
  29:c:\program files\daisytoolchain\arm-none-eabi\include\c++\10.2.1\bits\char_traits.h **** 
  30:c:\program files\daisytoolchain\arm-none-eabi\include\c++\10.2.1\bits\char_traits.h **** //
  31:c:\program files\daisytoolchain\arm-none-eabi\include\c++\10.2.1\bits\char_traits.h **** // ISO C++ 14882: 21  Strings library
  32:c:\program files\daisytoolchain\arm-none-eabi\include\c++\10.2.1\bits\char_traits.h **** //
  33:c:\program files\daisytoolchain\arm-none-eabi\include\c++\10.2.1\bits\char_traits.h **** 
  34:c:\program files\daisytoolchain\arm-none-eabi\include\c++\10.2.1\bits\char_traits.h **** #ifndef _CHAR_TRAITS_H
  35:c:\program files\daisytoolchain\arm-none-eabi\include\c++\10.2.1\bits\char_traits.h **** #define _CHAR_TRAITS_H 1
  36:c:\program files\daisytoolchain\arm-none-eabi\include\c++\10.2.1\bits\char_traits.h **** 
  37:c:\program files\daisytoolchain\arm-none-eabi\include\c++\10.2.1\bits\char_traits.h **** #pragma GCC system_header
  38:c:\program files\daisytoolchain\arm-none-eabi\include\c++\10.2.1\bits\char_traits.h **** 
  39:c:\program files\daisytoolchain\arm-none-eabi\include\c++\10.2.1\bits\char_traits.h **** #include <bits/stl_algobase.h>  // std::copy, std::fill_n
  40:c:\program files\daisytoolchain\arm-none-eabi\include\c++\10.2.1\bits\char_traits.h **** #include <bits/postypes.h>      // For streampos
  41:c:\program files\daisytoolchain\arm-none-eabi\include\c++\10.2.1\bits\char_traits.h **** #include <cwchar>               // For WEOF, wmemmove, wmemset, etc.
  42:c:\program files\daisytoolchain\arm-none-eabi\include\c++\10.2.1\bits\char_traits.h **** #if __cplusplus > 201703L
  43:c:\program files\daisytoolchain\arm-none-eabi\include\c++\10.2.1\bits\char_traits.h **** # include <compare>
  44:c:\program files\daisytoolchain\arm-none-eabi\include\c++\10.2.1\bits\char_traits.h **** #endif
ARM GAS  C:\Users\kenji\AppData\Local\Temp\cc5l7BVQ.s 			page 17


  45:c:\program files\daisytoolchain\arm-none-eabi\include\c++\10.2.1\bits\char_traits.h **** 
  46:c:\program files\daisytoolchain\arm-none-eabi\include\c++\10.2.1\bits\char_traits.h **** #ifndef _GLIBCXX_ALWAYS_INLINE
  47:c:\program files\daisytoolchain\arm-none-eabi\include\c++\10.2.1\bits\char_traits.h **** # define _GLIBCXX_ALWAYS_INLINE inline __attribute__((__always_inline__))
  48:c:\program files\daisytoolchain\arm-none-eabi\include\c++\10.2.1\bits\char_traits.h **** #endif
  49:c:\program files\daisytoolchain\arm-none-eabi\include\c++\10.2.1\bits\char_traits.h **** 
  50:c:\program files\daisytoolchain\arm-none-eabi\include\c++\10.2.1\bits\char_traits.h **** namespace __gnu_cxx _GLIBCXX_VISIBILITY(default)
  51:c:\program files\daisytoolchain\arm-none-eabi\include\c++\10.2.1\bits\char_traits.h **** {
  52:c:\program files\daisytoolchain\arm-none-eabi\include\c++\10.2.1\bits\char_traits.h **** _GLIBCXX_BEGIN_NAMESPACE_VERSION
  53:c:\program files\daisytoolchain\arm-none-eabi\include\c++\10.2.1\bits\char_traits.h **** 
  54:c:\program files\daisytoolchain\arm-none-eabi\include\c++\10.2.1\bits\char_traits.h ****   /**
  55:c:\program files\daisytoolchain\arm-none-eabi\include\c++\10.2.1\bits\char_traits.h ****    *  @brief  Mapping from character type to associated types.
  56:c:\program files\daisytoolchain\arm-none-eabi\include\c++\10.2.1\bits\char_traits.h ****    *
  57:c:\program files\daisytoolchain\arm-none-eabi\include\c++\10.2.1\bits\char_traits.h ****    *  @note This is an implementation class for the generic version
  58:c:\program files\daisytoolchain\arm-none-eabi\include\c++\10.2.1\bits\char_traits.h ****    *  of char_traits.  It defines int_type, off_type, pos_type, and
  59:c:\program files\daisytoolchain\arm-none-eabi\include\c++\10.2.1\bits\char_traits.h ****    *  state_type.  By default these are unsigned long, streamoff,
  60:c:\program files\daisytoolchain\arm-none-eabi\include\c++\10.2.1\bits\char_traits.h ****    *  streampos, and mbstate_t.  Users who need a different set of
  61:c:\program files\daisytoolchain\arm-none-eabi\include\c++\10.2.1\bits\char_traits.h ****    *  types, but who don't need to change the definitions of any function
  62:c:\program files\daisytoolchain\arm-none-eabi\include\c++\10.2.1\bits\char_traits.h ****    *  defined in char_traits, can specialize __gnu_cxx::_Char_types
  63:c:\program files\daisytoolchain\arm-none-eabi\include\c++\10.2.1\bits\char_traits.h ****    *  while leaving __gnu_cxx::char_traits alone. */
  64:c:\program files\daisytoolchain\arm-none-eabi\include\c++\10.2.1\bits\char_traits.h ****   template<typename _CharT>
  65:c:\program files\daisytoolchain\arm-none-eabi\include\c++\10.2.1\bits\char_traits.h ****     struct _Char_types
  66:c:\program files\daisytoolchain\arm-none-eabi\include\c++\10.2.1\bits\char_traits.h ****     {
  67:c:\program files\daisytoolchain\arm-none-eabi\include\c++\10.2.1\bits\char_traits.h ****       typedef unsigned long   int_type;
  68:c:\program files\daisytoolchain\arm-none-eabi\include\c++\10.2.1\bits\char_traits.h ****       typedef std::streampos  pos_type;
  69:c:\program files\daisytoolchain\arm-none-eabi\include\c++\10.2.1\bits\char_traits.h ****       typedef std::streamoff  off_type;
  70:c:\program files\daisytoolchain\arm-none-eabi\include\c++\10.2.1\bits\char_traits.h ****       typedef std::mbstate_t  state_type;
  71:c:\program files\daisytoolchain\arm-none-eabi\include\c++\10.2.1\bits\char_traits.h ****     };
  72:c:\program files\daisytoolchain\arm-none-eabi\include\c++\10.2.1\bits\char_traits.h **** 
  73:c:\program files\daisytoolchain\arm-none-eabi\include\c++\10.2.1\bits\char_traits.h **** 
  74:c:\program files\daisytoolchain\arm-none-eabi\include\c++\10.2.1\bits\char_traits.h ****   /**
  75:c:\program files\daisytoolchain\arm-none-eabi\include\c++\10.2.1\bits\char_traits.h ****    *  @brief  Base class used to implement std::char_traits.
  76:c:\program files\daisytoolchain\arm-none-eabi\include\c++\10.2.1\bits\char_traits.h ****    *
  77:c:\program files\daisytoolchain\arm-none-eabi\include\c++\10.2.1\bits\char_traits.h ****    *  @note For any given actual character type, this definition is
  78:c:\program files\daisytoolchain\arm-none-eabi\include\c++\10.2.1\bits\char_traits.h ****    *  probably wrong.  (Most of the member functions are likely to be
  79:c:\program files\daisytoolchain\arm-none-eabi\include\c++\10.2.1\bits\char_traits.h ****    *  right, but the int_type and state_type typedefs, and the eof()
  80:c:\program files\daisytoolchain\arm-none-eabi\include\c++\10.2.1\bits\char_traits.h ****    *  member function, are likely to be wrong.)  The reason this class
  81:c:\program files\daisytoolchain\arm-none-eabi\include\c++\10.2.1\bits\char_traits.h ****    *  exists is so users can specialize it.  Classes in namespace std
  82:c:\program files\daisytoolchain\arm-none-eabi\include\c++\10.2.1\bits\char_traits.h ****    *  may not be specialized for fundamental types, but classes in
  83:c:\program files\daisytoolchain\arm-none-eabi\include\c++\10.2.1\bits\char_traits.h ****    *  namespace __gnu_cxx may be.
  84:c:\program files\daisytoolchain\arm-none-eabi\include\c++\10.2.1\bits\char_traits.h ****    *
  85:c:\program files\daisytoolchain\arm-none-eabi\include\c++\10.2.1\bits\char_traits.h ****    *  See https://gcc.gnu.org/onlinedocs/libstdc++/manual/strings.html#strings.string.character_typ
  86:c:\program files\daisytoolchain\arm-none-eabi\include\c++\10.2.1\bits\char_traits.h ****    *  for advice on how to make use of this class for @a unusual character
  87:c:\program files\daisytoolchain\arm-none-eabi\include\c++\10.2.1\bits\char_traits.h ****    *  types. Also, check out include/ext/pod_char_traits.h.  
  88:c:\program files\daisytoolchain\arm-none-eabi\include\c++\10.2.1\bits\char_traits.h ****    */
  89:c:\program files\daisytoolchain\arm-none-eabi\include\c++\10.2.1\bits\char_traits.h ****   template<typename _CharT>
  90:c:\program files\daisytoolchain\arm-none-eabi\include\c++\10.2.1\bits\char_traits.h ****     struct char_traits
  91:c:\program files\daisytoolchain\arm-none-eabi\include\c++\10.2.1\bits\char_traits.h ****     {
  92:c:\program files\daisytoolchain\arm-none-eabi\include\c++\10.2.1\bits\char_traits.h ****       typedef _CharT                                    char_type;
  93:c:\program files\daisytoolchain\arm-none-eabi\include\c++\10.2.1\bits\char_traits.h ****       typedef typename _Char_types<_CharT>::int_type    int_type;
  94:c:\program files\daisytoolchain\arm-none-eabi\include\c++\10.2.1\bits\char_traits.h ****       typedef typename _Char_types<_CharT>::pos_type    pos_type;
  95:c:\program files\daisytoolchain\arm-none-eabi\include\c++\10.2.1\bits\char_traits.h ****       typedef typename _Char_types<_CharT>::off_type    off_type;
  96:c:\program files\daisytoolchain\arm-none-eabi\include\c++\10.2.1\bits\char_traits.h ****       typedef typename _Char_types<_CharT>::state_type  state_type;
  97:c:\program files\daisytoolchain\arm-none-eabi\include\c++\10.2.1\bits\char_traits.h **** #if __cpp_lib_three_way_comparison
  98:c:\program files\daisytoolchain\arm-none-eabi\include\c++\10.2.1\bits\char_traits.h ****       using comparison_category = std::strong_ordering;
  99:c:\program files\daisytoolchain\arm-none-eabi\include\c++\10.2.1\bits\char_traits.h **** #endif
 100:c:\program files\daisytoolchain\arm-none-eabi\include\c++\10.2.1\bits\char_traits.h **** 
 101:c:\program files\daisytoolchain\arm-none-eabi\include\c++\10.2.1\bits\char_traits.h ****       static _GLIBCXX14_CONSTEXPR void
ARM GAS  C:\Users\kenji\AppData\Local\Temp\cc5l7BVQ.s 			page 18


 102:c:\program files\daisytoolchain\arm-none-eabi\include\c++\10.2.1\bits\char_traits.h ****       assign(char_type& __c1, const char_type& __c2)
 103:c:\program files\daisytoolchain\arm-none-eabi\include\c++\10.2.1\bits\char_traits.h ****       { __c1 = __c2; }
 104:c:\program files\daisytoolchain\arm-none-eabi\include\c++\10.2.1\bits\char_traits.h **** 
 105:c:\program files\daisytoolchain\arm-none-eabi\include\c++\10.2.1\bits\char_traits.h ****       static _GLIBCXX_CONSTEXPR bool
 106:c:\program files\daisytoolchain\arm-none-eabi\include\c++\10.2.1\bits\char_traits.h ****       eq(const char_type& __c1, const char_type& __c2)
 107:c:\program files\daisytoolchain\arm-none-eabi\include\c++\10.2.1\bits\char_traits.h ****       { return __c1 == __c2; }
 108:c:\program files\daisytoolchain\arm-none-eabi\include\c++\10.2.1\bits\char_traits.h **** 
 109:c:\program files\daisytoolchain\arm-none-eabi\include\c++\10.2.1\bits\char_traits.h ****       static _GLIBCXX_CONSTEXPR bool
 110:c:\program files\daisytoolchain\arm-none-eabi\include\c++\10.2.1\bits\char_traits.h ****       lt(const char_type& __c1, const char_type& __c2)
 111:c:\program files\daisytoolchain\arm-none-eabi\include\c++\10.2.1\bits\char_traits.h ****       { return __c1 < __c2; }
 112:c:\program files\daisytoolchain\arm-none-eabi\include\c++\10.2.1\bits\char_traits.h **** 
 113:c:\program files\daisytoolchain\arm-none-eabi\include\c++\10.2.1\bits\char_traits.h ****       static _GLIBCXX14_CONSTEXPR int
 114:c:\program files\daisytoolchain\arm-none-eabi\include\c++\10.2.1\bits\char_traits.h ****       compare(const char_type* __s1, const char_type* __s2, std::size_t __n);
 115:c:\program files\daisytoolchain\arm-none-eabi\include\c++\10.2.1\bits\char_traits.h **** 
 116:c:\program files\daisytoolchain\arm-none-eabi\include\c++\10.2.1\bits\char_traits.h ****       static _GLIBCXX14_CONSTEXPR std::size_t
 117:c:\program files\daisytoolchain\arm-none-eabi\include\c++\10.2.1\bits\char_traits.h ****       length(const char_type* __s);
 118:c:\program files\daisytoolchain\arm-none-eabi\include\c++\10.2.1\bits\char_traits.h **** 
 119:c:\program files\daisytoolchain\arm-none-eabi\include\c++\10.2.1\bits\char_traits.h ****       static _GLIBCXX14_CONSTEXPR const char_type*
 120:c:\program files\daisytoolchain\arm-none-eabi\include\c++\10.2.1\bits\char_traits.h ****       find(const char_type* __s, std::size_t __n, const char_type& __a);
 121:c:\program files\daisytoolchain\arm-none-eabi\include\c++\10.2.1\bits\char_traits.h **** 
 122:c:\program files\daisytoolchain\arm-none-eabi\include\c++\10.2.1\bits\char_traits.h ****       static _GLIBCXX20_CONSTEXPR char_type*
 123:c:\program files\daisytoolchain\arm-none-eabi\include\c++\10.2.1\bits\char_traits.h ****       move(char_type* __s1, const char_type* __s2, std::size_t __n);
 124:c:\program files\daisytoolchain\arm-none-eabi\include\c++\10.2.1\bits\char_traits.h **** 
 125:c:\program files\daisytoolchain\arm-none-eabi\include\c++\10.2.1\bits\char_traits.h ****       static _GLIBCXX20_CONSTEXPR char_type*
 126:c:\program files\daisytoolchain\arm-none-eabi\include\c++\10.2.1\bits\char_traits.h ****       copy(char_type* __s1, const char_type* __s2, std::size_t __n);
 127:c:\program files\daisytoolchain\arm-none-eabi\include\c++\10.2.1\bits\char_traits.h **** 
 128:c:\program files\daisytoolchain\arm-none-eabi\include\c++\10.2.1\bits\char_traits.h ****       static _GLIBCXX20_CONSTEXPR char_type*
 129:c:\program files\daisytoolchain\arm-none-eabi\include\c++\10.2.1\bits\char_traits.h ****       assign(char_type* __s, std::size_t __n, char_type __a);
 130:c:\program files\daisytoolchain\arm-none-eabi\include\c++\10.2.1\bits\char_traits.h **** 
 131:c:\program files\daisytoolchain\arm-none-eabi\include\c++\10.2.1\bits\char_traits.h ****       static _GLIBCXX_CONSTEXPR char_type
 132:c:\program files\daisytoolchain\arm-none-eabi\include\c++\10.2.1\bits\char_traits.h ****       to_char_type(const int_type& __c)
 133:c:\program files\daisytoolchain\arm-none-eabi\include\c++\10.2.1\bits\char_traits.h ****       { return static_cast<char_type>(__c); }
 134:c:\program files\daisytoolchain\arm-none-eabi\include\c++\10.2.1\bits\char_traits.h **** 
 135:c:\program files\daisytoolchain\arm-none-eabi\include\c++\10.2.1\bits\char_traits.h ****       static _GLIBCXX_CONSTEXPR int_type
 136:c:\program files\daisytoolchain\arm-none-eabi\include\c++\10.2.1\bits\char_traits.h ****       to_int_type(const char_type& __c)
 137:c:\program files\daisytoolchain\arm-none-eabi\include\c++\10.2.1\bits\char_traits.h ****       { return static_cast<int_type>(__c); }
 138:c:\program files\daisytoolchain\arm-none-eabi\include\c++\10.2.1\bits\char_traits.h **** 
 139:c:\program files\daisytoolchain\arm-none-eabi\include\c++\10.2.1\bits\char_traits.h ****       static _GLIBCXX_CONSTEXPR bool
 140:c:\program files\daisytoolchain\arm-none-eabi\include\c++\10.2.1\bits\char_traits.h ****       eq_int_type(const int_type& __c1, const int_type& __c2)
 141:c:\program files\daisytoolchain\arm-none-eabi\include\c++\10.2.1\bits\char_traits.h ****       { return __c1 == __c2; }
 142:c:\program files\daisytoolchain\arm-none-eabi\include\c++\10.2.1\bits\char_traits.h **** 
 143:c:\program files\daisytoolchain\arm-none-eabi\include\c++\10.2.1\bits\char_traits.h ****       static _GLIBCXX_CONSTEXPR int_type
 144:c:\program files\daisytoolchain\arm-none-eabi\include\c++\10.2.1\bits\char_traits.h ****       eof()
 145:c:\program files\daisytoolchain\arm-none-eabi\include\c++\10.2.1\bits\char_traits.h ****       { return static_cast<int_type>(_GLIBCXX_STDIO_EOF); }
 146:c:\program files\daisytoolchain\arm-none-eabi\include\c++\10.2.1\bits\char_traits.h **** 
 147:c:\program files\daisytoolchain\arm-none-eabi\include\c++\10.2.1\bits\char_traits.h ****       static _GLIBCXX_CONSTEXPR int_type
 148:c:\program files\daisytoolchain\arm-none-eabi\include\c++\10.2.1\bits\char_traits.h ****       not_eof(const int_type& __c)
 149:c:\program files\daisytoolchain\arm-none-eabi\include\c++\10.2.1\bits\char_traits.h ****       { return !eq_int_type(__c, eof()) ? __c : to_int_type(char_type()); }
 150:c:\program files\daisytoolchain\arm-none-eabi\include\c++\10.2.1\bits\char_traits.h ****     };
 151:c:\program files\daisytoolchain\arm-none-eabi\include\c++\10.2.1\bits\char_traits.h **** 
 152:c:\program files\daisytoolchain\arm-none-eabi\include\c++\10.2.1\bits\char_traits.h ****   template<typename _CharT>
 153:c:\program files\daisytoolchain\arm-none-eabi\include\c++\10.2.1\bits\char_traits.h ****     _GLIBCXX14_CONSTEXPR int
 154:c:\program files\daisytoolchain\arm-none-eabi\include\c++\10.2.1\bits\char_traits.h ****     char_traits<_CharT>::
 155:c:\program files\daisytoolchain\arm-none-eabi\include\c++\10.2.1\bits\char_traits.h ****     compare(const char_type* __s1, const char_type* __s2, std::size_t __n)
 156:c:\program files\daisytoolchain\arm-none-eabi\include\c++\10.2.1\bits\char_traits.h ****     {
 157:c:\program files\daisytoolchain\arm-none-eabi\include\c++\10.2.1\bits\char_traits.h ****       for (std::size_t __i = 0; __i < __n; ++__i)
 158:c:\program files\daisytoolchain\arm-none-eabi\include\c++\10.2.1\bits\char_traits.h **** 	if (lt(__s1[__i], __s2[__i]))
ARM GAS  C:\Users\kenji\AppData\Local\Temp\cc5l7BVQ.s 			page 19


 159:c:\program files\daisytoolchain\arm-none-eabi\include\c++\10.2.1\bits\char_traits.h **** 	  return -1;
 160:c:\program files\daisytoolchain\arm-none-eabi\include\c++\10.2.1\bits\char_traits.h **** 	else if (lt(__s2[__i], __s1[__i]))
 161:c:\program files\daisytoolchain\arm-none-eabi\include\c++\10.2.1\bits\char_traits.h **** 	  return 1;
 162:c:\program files\daisytoolchain\arm-none-eabi\include\c++\10.2.1\bits\char_traits.h ****       return 0;
 163:c:\program files\daisytoolchain\arm-none-eabi\include\c++\10.2.1\bits\char_traits.h ****     }
 164:c:\program files\daisytoolchain\arm-none-eabi\include\c++\10.2.1\bits\char_traits.h **** 
 165:c:\program files\daisytoolchain\arm-none-eabi\include\c++\10.2.1\bits\char_traits.h ****   template<typename _CharT>
 166:c:\program files\daisytoolchain\arm-none-eabi\include\c++\10.2.1\bits\char_traits.h ****     _GLIBCXX14_CONSTEXPR std::size_t
 167:c:\program files\daisytoolchain\arm-none-eabi\include\c++\10.2.1\bits\char_traits.h ****     char_traits<_CharT>::
 168:c:\program files\daisytoolchain\arm-none-eabi\include\c++\10.2.1\bits\char_traits.h ****     length(const char_type* __p)
 169:c:\program files\daisytoolchain\arm-none-eabi\include\c++\10.2.1\bits\char_traits.h ****     {
 170:c:\program files\daisytoolchain\arm-none-eabi\include\c++\10.2.1\bits\char_traits.h ****       std::size_t __i = 0;
 171:c:\program files\daisytoolchain\arm-none-eabi\include\c++\10.2.1\bits\char_traits.h ****       while (!eq(__p[__i], char_type()))
 172:c:\program files\daisytoolchain\arm-none-eabi\include\c++\10.2.1\bits\char_traits.h ****         ++__i;
 173:c:\program files\daisytoolchain\arm-none-eabi\include\c++\10.2.1\bits\char_traits.h ****       return __i;
 174:c:\program files\daisytoolchain\arm-none-eabi\include\c++\10.2.1\bits\char_traits.h ****     }
 175:c:\program files\daisytoolchain\arm-none-eabi\include\c++\10.2.1\bits\char_traits.h **** 
 176:c:\program files\daisytoolchain\arm-none-eabi\include\c++\10.2.1\bits\char_traits.h ****   template<typename _CharT>
 177:c:\program files\daisytoolchain\arm-none-eabi\include\c++\10.2.1\bits\char_traits.h ****     _GLIBCXX14_CONSTEXPR const typename char_traits<_CharT>::char_type*
 178:c:\program files\daisytoolchain\arm-none-eabi\include\c++\10.2.1\bits\char_traits.h ****     char_traits<_CharT>::
 179:c:\program files\daisytoolchain\arm-none-eabi\include\c++\10.2.1\bits\char_traits.h ****     find(const char_type* __s, std::size_t __n, const char_type& __a)
 180:c:\program files\daisytoolchain\arm-none-eabi\include\c++\10.2.1\bits\char_traits.h ****     {
 181:c:\program files\daisytoolchain\arm-none-eabi\include\c++\10.2.1\bits\char_traits.h ****       for (std::size_t __i = 0; __i < __n; ++__i)
 182:c:\program files\daisytoolchain\arm-none-eabi\include\c++\10.2.1\bits\char_traits.h ****         if (eq(__s[__i], __a))
 183:c:\program files\daisytoolchain\arm-none-eabi\include\c++\10.2.1\bits\char_traits.h ****           return __s + __i;
 184:c:\program files\daisytoolchain\arm-none-eabi\include\c++\10.2.1\bits\char_traits.h ****       return 0;
 185:c:\program files\daisytoolchain\arm-none-eabi\include\c++\10.2.1\bits\char_traits.h ****     }
 186:c:\program files\daisytoolchain\arm-none-eabi\include\c++\10.2.1\bits\char_traits.h **** 
 187:c:\program files\daisytoolchain\arm-none-eabi\include\c++\10.2.1\bits\char_traits.h ****   template<typename _CharT>
 188:c:\program files\daisytoolchain\arm-none-eabi\include\c++\10.2.1\bits\char_traits.h ****     _GLIBCXX20_CONSTEXPR
 189:c:\program files\daisytoolchain\arm-none-eabi\include\c++\10.2.1\bits\char_traits.h ****     typename char_traits<_CharT>::char_type*
 190:c:\program files\daisytoolchain\arm-none-eabi\include\c++\10.2.1\bits\char_traits.h ****     char_traits<_CharT>::
 191:c:\program files\daisytoolchain\arm-none-eabi\include\c++\10.2.1\bits\char_traits.h ****     move(char_type* __s1, const char_type* __s2, std::size_t __n)
 192:c:\program files\daisytoolchain\arm-none-eabi\include\c++\10.2.1\bits\char_traits.h ****     {
 193:c:\program files\daisytoolchain\arm-none-eabi\include\c++\10.2.1\bits\char_traits.h ****       if (__n == 0)
 194:c:\program files\daisytoolchain\arm-none-eabi\include\c++\10.2.1\bits\char_traits.h **** 	return __s1;
 195:c:\program files\daisytoolchain\arm-none-eabi\include\c++\10.2.1\bits\char_traits.h **** #ifdef __cpp_lib_is_constant_evaluated
 196:c:\program files\daisytoolchain\arm-none-eabi\include\c++\10.2.1\bits\char_traits.h ****       if (std::is_constant_evaluated())
 197:c:\program files\daisytoolchain\arm-none-eabi\include\c++\10.2.1\bits\char_traits.h **** 	{
 198:c:\program files\daisytoolchain\arm-none-eabi\include\c++\10.2.1\bits\char_traits.h **** 	  if (__s1 > __s2 && __s1 < __s2 + __n)
 199:c:\program files\daisytoolchain\arm-none-eabi\include\c++\10.2.1\bits\char_traits.h **** 	    std::copy_backward(__s2, __s2 + __n, __s1);
 200:c:\program files\daisytoolchain\arm-none-eabi\include\c++\10.2.1\bits\char_traits.h **** 	  else
 201:c:\program files\daisytoolchain\arm-none-eabi\include\c++\10.2.1\bits\char_traits.h **** 	    std::copy(__s2, __s2 + __n, __s1);
 202:c:\program files\daisytoolchain\arm-none-eabi\include\c++\10.2.1\bits\char_traits.h **** 	  return __s1;
 203:c:\program files\daisytoolchain\arm-none-eabi\include\c++\10.2.1\bits\char_traits.h **** 	}
 204:c:\program files\daisytoolchain\arm-none-eabi\include\c++\10.2.1\bits\char_traits.h **** #endif
 205:c:\program files\daisytoolchain\arm-none-eabi\include\c++\10.2.1\bits\char_traits.h ****       return static_cast<_CharT*>(__builtin_memmove(__s1, __s2,
 206:c:\program files\daisytoolchain\arm-none-eabi\include\c++\10.2.1\bits\char_traits.h **** 						    __n * sizeof(char_type)));
 207:c:\program files\daisytoolchain\arm-none-eabi\include\c++\10.2.1\bits\char_traits.h ****     }
 208:c:\program files\daisytoolchain\arm-none-eabi\include\c++\10.2.1\bits\char_traits.h **** 
 209:c:\program files\daisytoolchain\arm-none-eabi\include\c++\10.2.1\bits\char_traits.h ****   template<typename _CharT>
 210:c:\program files\daisytoolchain\arm-none-eabi\include\c++\10.2.1\bits\char_traits.h ****     _GLIBCXX20_CONSTEXPR
 211:c:\program files\daisytoolchain\arm-none-eabi\include\c++\10.2.1\bits\char_traits.h ****     typename char_traits<_CharT>::char_type*
 212:c:\program files\daisytoolchain\arm-none-eabi\include\c++\10.2.1\bits\char_traits.h ****     char_traits<_CharT>::
 213:c:\program files\daisytoolchain\arm-none-eabi\include\c++\10.2.1\bits\char_traits.h ****     copy(char_type* __s1, const char_type* __s2, std::size_t __n)
 214:c:\program files\daisytoolchain\arm-none-eabi\include\c++\10.2.1\bits\char_traits.h ****     {
 215:c:\program files\daisytoolchain\arm-none-eabi\include\c++\10.2.1\bits\char_traits.h ****       // NB: Inline std::copy so no recursive dependencies.
ARM GAS  C:\Users\kenji\AppData\Local\Temp\cc5l7BVQ.s 			page 20


 216:c:\program files\daisytoolchain\arm-none-eabi\include\c++\10.2.1\bits\char_traits.h ****       std::copy(__s2, __s2 + __n, __s1);
 217:c:\program files\daisytoolchain\arm-none-eabi\include\c++\10.2.1\bits\char_traits.h ****       return __s1;
 218:c:\program files\daisytoolchain\arm-none-eabi\include\c++\10.2.1\bits\char_traits.h ****     }
 219:c:\program files\daisytoolchain\arm-none-eabi\include\c++\10.2.1\bits\char_traits.h **** 
 220:c:\program files\daisytoolchain\arm-none-eabi\include\c++\10.2.1\bits\char_traits.h ****   template<typename _CharT>
 221:c:\program files\daisytoolchain\arm-none-eabi\include\c++\10.2.1\bits\char_traits.h ****     _GLIBCXX20_CONSTEXPR
 222:c:\program files\daisytoolchain\arm-none-eabi\include\c++\10.2.1\bits\char_traits.h ****     typename char_traits<_CharT>::char_type*
 223:c:\program files\daisytoolchain\arm-none-eabi\include\c++\10.2.1\bits\char_traits.h ****     char_traits<_CharT>::
 224:c:\program files\daisytoolchain\arm-none-eabi\include\c++\10.2.1\bits\char_traits.h ****     assign(char_type* __s, std::size_t __n, char_type __a)
 225:c:\program files\daisytoolchain\arm-none-eabi\include\c++\10.2.1\bits\char_traits.h ****     {
 226:c:\program files\daisytoolchain\arm-none-eabi\include\c++\10.2.1\bits\char_traits.h ****       // NB: Inline std::fill_n so no recursive dependencies.
 227:c:\program files\daisytoolchain\arm-none-eabi\include\c++\10.2.1\bits\char_traits.h ****       std::fill_n(__s, __n, __a);
 228:c:\program files\daisytoolchain\arm-none-eabi\include\c++\10.2.1\bits\char_traits.h ****       return __s;
 229:c:\program files\daisytoolchain\arm-none-eabi\include\c++\10.2.1\bits\char_traits.h ****     }
 230:c:\program files\daisytoolchain\arm-none-eabi\include\c++\10.2.1\bits\char_traits.h **** 
 231:c:\program files\daisytoolchain\arm-none-eabi\include\c++\10.2.1\bits\char_traits.h **** _GLIBCXX_END_NAMESPACE_VERSION
 232:c:\program files\daisytoolchain\arm-none-eabi\include\c++\10.2.1\bits\char_traits.h **** } // namespace
 233:c:\program files\daisytoolchain\arm-none-eabi\include\c++\10.2.1\bits\char_traits.h **** 
 234:c:\program files\daisytoolchain\arm-none-eabi\include\c++\10.2.1\bits\char_traits.h **** namespace std _GLIBCXX_VISIBILITY(default)
 235:c:\program files\daisytoolchain\arm-none-eabi\include\c++\10.2.1\bits\char_traits.h **** {
 236:c:\program files\daisytoolchain\arm-none-eabi\include\c++\10.2.1\bits\char_traits.h **** _GLIBCXX_BEGIN_NAMESPACE_VERSION
 237:c:\program files\daisytoolchain\arm-none-eabi\include\c++\10.2.1\bits\char_traits.h **** 
 238:c:\program files\daisytoolchain\arm-none-eabi\include\c++\10.2.1\bits\char_traits.h **** #if __cplusplus >= 201703L
 239:c:\program files\daisytoolchain\arm-none-eabi\include\c++\10.2.1\bits\char_traits.h **** #define __cpp_lib_constexpr_char_traits 201611
 240:c:\program files\daisytoolchain\arm-none-eabi\include\c++\10.2.1\bits\char_traits.h **** 
 241:c:\program files\daisytoolchain\arm-none-eabi\include\c++\10.2.1\bits\char_traits.h ****   /**
 242:c:\program files\daisytoolchain\arm-none-eabi\include\c++\10.2.1\bits\char_traits.h ****    *  @brief Determine whether the characters of a NULL-terminated
 243:c:\program files\daisytoolchain\arm-none-eabi\include\c++\10.2.1\bits\char_traits.h ****    *  string are known at compile time.
 244:c:\program files\daisytoolchain\arm-none-eabi\include\c++\10.2.1\bits\char_traits.h ****    *  @param  __s  The string.
 245:c:\program files\daisytoolchain\arm-none-eabi\include\c++\10.2.1\bits\char_traits.h ****    *
 246:c:\program files\daisytoolchain\arm-none-eabi\include\c++\10.2.1\bits\char_traits.h ****    *  Assumes that _CharT is a built-in character type.
 247:c:\program files\daisytoolchain\arm-none-eabi\include\c++\10.2.1\bits\char_traits.h ****    */
 248:c:\program files\daisytoolchain\arm-none-eabi\include\c++\10.2.1\bits\char_traits.h ****   template<typename _CharT>
 249:c:\program files\daisytoolchain\arm-none-eabi\include\c++\10.2.1\bits\char_traits.h ****     static _GLIBCXX_ALWAYS_INLINE constexpr bool
 250:c:\program files\daisytoolchain\arm-none-eabi\include\c++\10.2.1\bits\char_traits.h ****     __constant_string_p(const _CharT* __s)
 251:c:\program files\daisytoolchain\arm-none-eabi\include\c++\10.2.1\bits\char_traits.h ****     {
 252:c:\program files\daisytoolchain\arm-none-eabi\include\c++\10.2.1\bits\char_traits.h **** #ifdef _GLIBCXX_HAVE_BUILTIN_IS_CONSTANT_EVALUATED
 253:c:\program files\daisytoolchain\arm-none-eabi\include\c++\10.2.1\bits\char_traits.h ****       (void) __s;
 254:c:\program files\daisytoolchain\arm-none-eabi\include\c++\10.2.1\bits\char_traits.h ****       // In constexpr contexts all strings should be constant.
 255:c:\program files\daisytoolchain\arm-none-eabi\include\c++\10.2.1\bits\char_traits.h ****       return __builtin_is_constant_evaluated();
 256:c:\program files\daisytoolchain\arm-none-eabi\include\c++\10.2.1\bits\char_traits.h **** #else
 257:c:\program files\daisytoolchain\arm-none-eabi\include\c++\10.2.1\bits\char_traits.h ****       while (__builtin_constant_p(*__s) && *__s)
 258:c:\program files\daisytoolchain\arm-none-eabi\include\c++\10.2.1\bits\char_traits.h **** 	__s++;
 259:c:\program files\daisytoolchain\arm-none-eabi\include\c++\10.2.1\bits\char_traits.h ****       return __builtin_constant_p(*__s);
 260:c:\program files\daisytoolchain\arm-none-eabi\include\c++\10.2.1\bits\char_traits.h **** #endif
 261:c:\program files\daisytoolchain\arm-none-eabi\include\c++\10.2.1\bits\char_traits.h ****     }
 262:c:\program files\daisytoolchain\arm-none-eabi\include\c++\10.2.1\bits\char_traits.h **** 
 263:c:\program files\daisytoolchain\arm-none-eabi\include\c++\10.2.1\bits\char_traits.h ****   /**
 264:c:\program files\daisytoolchain\arm-none-eabi\include\c++\10.2.1\bits\char_traits.h ****    *  @brief Determine whether the characters of a character array are
 265:c:\program files\daisytoolchain\arm-none-eabi\include\c++\10.2.1\bits\char_traits.h ****    *  known at compile time.
 266:c:\program files\daisytoolchain\arm-none-eabi\include\c++\10.2.1\bits\char_traits.h ****    *  @param  __a  The character array.
 267:c:\program files\daisytoolchain\arm-none-eabi\include\c++\10.2.1\bits\char_traits.h ****    *  @param  __n  Number of characters.
 268:c:\program files\daisytoolchain\arm-none-eabi\include\c++\10.2.1\bits\char_traits.h ****    *
 269:c:\program files\daisytoolchain\arm-none-eabi\include\c++\10.2.1\bits\char_traits.h ****    *  Assumes that _CharT is a built-in character type.
 270:c:\program files\daisytoolchain\arm-none-eabi\include\c++\10.2.1\bits\char_traits.h ****    */
 271:c:\program files\daisytoolchain\arm-none-eabi\include\c++\10.2.1\bits\char_traits.h ****   template<typename _CharT>
 272:c:\program files\daisytoolchain\arm-none-eabi\include\c++\10.2.1\bits\char_traits.h ****     static _GLIBCXX_ALWAYS_INLINE constexpr bool
ARM GAS  C:\Users\kenji\AppData\Local\Temp\cc5l7BVQ.s 			page 21


 273:c:\program files\daisytoolchain\arm-none-eabi\include\c++\10.2.1\bits\char_traits.h ****     __constant_char_array_p(const _CharT* __a, size_t __n)
 274:c:\program files\daisytoolchain\arm-none-eabi\include\c++\10.2.1\bits\char_traits.h ****     {
 275:c:\program files\daisytoolchain\arm-none-eabi\include\c++\10.2.1\bits\char_traits.h **** #ifdef _GLIBCXX_HAVE_BUILTIN_IS_CONSTANT_EVALUATED
 276:c:\program files\daisytoolchain\arm-none-eabi\include\c++\10.2.1\bits\char_traits.h ****       (void) __a;
 277:c:\program files\daisytoolchain\arm-none-eabi\include\c++\10.2.1\bits\char_traits.h ****       (void) __n;
 278:c:\program files\daisytoolchain\arm-none-eabi\include\c++\10.2.1\bits\char_traits.h ****       // In constexpr contexts all character arrays should be constant.
 279:c:\program files\daisytoolchain\arm-none-eabi\include\c++\10.2.1\bits\char_traits.h ****       return __builtin_is_constant_evaluated();
 280:c:\program files\daisytoolchain\arm-none-eabi\include\c++\10.2.1\bits\char_traits.h **** #else
 281:c:\program files\daisytoolchain\arm-none-eabi\include\c++\10.2.1\bits\char_traits.h ****       size_t __i = 0;
 282:c:\program files\daisytoolchain\arm-none-eabi\include\c++\10.2.1\bits\char_traits.h ****       while (__i < __n && __builtin_constant_p(__a[__i]))
 283:c:\program files\daisytoolchain\arm-none-eabi\include\c++\10.2.1\bits\char_traits.h **** 	__i++;
 284:c:\program files\daisytoolchain\arm-none-eabi\include\c++\10.2.1\bits\char_traits.h ****       return __i == __n;
 285:c:\program files\daisytoolchain\arm-none-eabi\include\c++\10.2.1\bits\char_traits.h **** #endif
 286:c:\program files\daisytoolchain\arm-none-eabi\include\c++\10.2.1\bits\char_traits.h ****     }
 287:c:\program files\daisytoolchain\arm-none-eabi\include\c++\10.2.1\bits\char_traits.h **** #endif
 288:c:\program files\daisytoolchain\arm-none-eabi\include\c++\10.2.1\bits\char_traits.h **** 
 289:c:\program files\daisytoolchain\arm-none-eabi\include\c++\10.2.1\bits\char_traits.h ****   // 21.1
 290:c:\program files\daisytoolchain\arm-none-eabi\include\c++\10.2.1\bits\char_traits.h ****   /**
 291:c:\program files\daisytoolchain\arm-none-eabi\include\c++\10.2.1\bits\char_traits.h ****    *  @brief  Basis for explicit traits specializations.
 292:c:\program files\daisytoolchain\arm-none-eabi\include\c++\10.2.1\bits\char_traits.h ****    *
 293:c:\program files\daisytoolchain\arm-none-eabi\include\c++\10.2.1\bits\char_traits.h ****    *  @note  For any given actual character type, this definition is
 294:c:\program files\daisytoolchain\arm-none-eabi\include\c++\10.2.1\bits\char_traits.h ****    *  probably wrong.  Since this is just a thin wrapper around
 295:c:\program files\daisytoolchain\arm-none-eabi\include\c++\10.2.1\bits\char_traits.h ****    *  __gnu_cxx::char_traits, it is possible to achieve a more
 296:c:\program files\daisytoolchain\arm-none-eabi\include\c++\10.2.1\bits\char_traits.h ****    *  appropriate definition by specializing __gnu_cxx::char_traits.
 297:c:\program files\daisytoolchain\arm-none-eabi\include\c++\10.2.1\bits\char_traits.h ****    *
 298:c:\program files\daisytoolchain\arm-none-eabi\include\c++\10.2.1\bits\char_traits.h ****    *  See https://gcc.gnu.org/onlinedocs/libstdc++/manual/strings.html#strings.string.character_typ
 299:c:\program files\daisytoolchain\arm-none-eabi\include\c++\10.2.1\bits\char_traits.h ****    *  for advice on how to make use of this class for @a unusual character
 300:c:\program files\daisytoolchain\arm-none-eabi\include\c++\10.2.1\bits\char_traits.h ****    *  types. Also, check out include/ext/pod_char_traits.h.
 301:c:\program files\daisytoolchain\arm-none-eabi\include\c++\10.2.1\bits\char_traits.h ****   */
 302:c:\program files\daisytoolchain\arm-none-eabi\include\c++\10.2.1\bits\char_traits.h ****   template<class _CharT>
 303:c:\program files\daisytoolchain\arm-none-eabi\include\c++\10.2.1\bits\char_traits.h ****     struct char_traits : public __gnu_cxx::char_traits<_CharT>
 304:c:\program files\daisytoolchain\arm-none-eabi\include\c++\10.2.1\bits\char_traits.h ****     { };
 305:c:\program files\daisytoolchain\arm-none-eabi\include\c++\10.2.1\bits\char_traits.h **** 
 306:c:\program files\daisytoolchain\arm-none-eabi\include\c++\10.2.1\bits\char_traits.h **** 
 307:c:\program files\daisytoolchain\arm-none-eabi\include\c++\10.2.1\bits\char_traits.h ****   /// 21.1.3.1  char_traits specializations
 308:c:\program files\daisytoolchain\arm-none-eabi\include\c++\10.2.1\bits\char_traits.h ****   template<>
 309:c:\program files\daisytoolchain\arm-none-eabi\include\c++\10.2.1\bits\char_traits.h ****     struct char_traits<char>
 310:c:\program files\daisytoolchain\arm-none-eabi\include\c++\10.2.1\bits\char_traits.h ****     {
 311:c:\program files\daisytoolchain\arm-none-eabi\include\c++\10.2.1\bits\char_traits.h ****       typedef char              char_type;
 312:c:\program files\daisytoolchain\arm-none-eabi\include\c++\10.2.1\bits\char_traits.h ****       typedef int               int_type;
 313:c:\program files\daisytoolchain\arm-none-eabi\include\c++\10.2.1\bits\char_traits.h ****       typedef streampos         pos_type;
 314:c:\program files\daisytoolchain\arm-none-eabi\include\c++\10.2.1\bits\char_traits.h ****       typedef streamoff         off_type;
 315:c:\program files\daisytoolchain\arm-none-eabi\include\c++\10.2.1\bits\char_traits.h ****       typedef mbstate_t         state_type;
 316:c:\program files\daisytoolchain\arm-none-eabi\include\c++\10.2.1\bits\char_traits.h **** #if __cpp_lib_three_way_comparison
 317:c:\program files\daisytoolchain\arm-none-eabi\include\c++\10.2.1\bits\char_traits.h ****       using comparison_category = strong_ordering;
 318:c:\program files\daisytoolchain\arm-none-eabi\include\c++\10.2.1\bits\char_traits.h **** #endif
 319:c:\program files\daisytoolchain\arm-none-eabi\include\c++\10.2.1\bits\char_traits.h **** 
 320:c:\program files\daisytoolchain\arm-none-eabi\include\c++\10.2.1\bits\char_traits.h ****       static _GLIBCXX17_CONSTEXPR void
 321:c:\program files\daisytoolchain\arm-none-eabi\include\c++\10.2.1\bits\char_traits.h ****       assign(char_type& __c1, const char_type& __c2) _GLIBCXX_NOEXCEPT
 108              		.loc 4 321 7 is_stmt 1 view .LVU17
 109              	.LBB444:
 322:c:\program files\daisytoolchain\arm-none-eabi\include\c++\10.2.1\bits\char_traits.h ****       { __c1 = __c2; }
 110              		.loc 4 322 9 view .LVU18
 111              		.loc 4 322 16 is_stmt 0 view .LVU19
 112 001a 3378     		ldrb	r3, [r6]	@ zero_extendqisi2
 113              		.loc 4 322 14 view .LVU20
 114 001c 0370     		strb	r3, [r0]
ARM GAS  C:\Users\kenji\AppData\Local\Temp\cc5l7BVQ.s 			page 22


 115              	.LBE444:
 116              	.LBE443:
 117              	.LBE454:
 118              	.LBE458:
 119              	.LBE463:
 120              	.LBB464:
 121              	.LBB465:
 122              	.LBB466:
 123              	.LBB467:
 124 001e 0023     		movs	r3, #0
 125              	.LBE467:
 126              	.LBE466:
 127              	.LBE465:
 128              	.LBE464:
 218:c:\program files\daisytoolchain\arm-none-eabi\include\c++\10.2.1\bits\basic_string.tcc **** 	  {
 219:c:\program files\daisytoolchain\arm-none-eabi\include\c++\10.2.1\bits\basic_string.tcc **** 	    _M_data(_M_create(__dnew, size_type(0)));
 220:c:\program files\daisytoolchain\arm-none-eabi\include\c++\10.2.1\bits\basic_string.tcc **** 	    _M_capacity(__dnew);
 221:c:\program files\daisytoolchain\arm-none-eabi\include\c++\10.2.1\bits\basic_string.tcc **** 	  }
 222:c:\program files\daisytoolchain\arm-none-eabi\include\c++\10.2.1\bits\basic_string.tcc **** 
 223:c:\program files\daisytoolchain\arm-none-eabi\include\c++\10.2.1\bits\basic_string.tcc **** 	// Check for out_of_range and length_error exceptions.
 224:c:\program files\daisytoolchain\arm-none-eabi\include\c++\10.2.1\bits\basic_string.tcc **** 	__try
 225:c:\program files\daisytoolchain\arm-none-eabi\include\c++\10.2.1\bits\basic_string.tcc **** 	  { this->_S_copy_chars(_M_data(), __beg, __end); }
 226:c:\program files\daisytoolchain\arm-none-eabi\include\c++\10.2.1\bits\basic_string.tcc **** 	__catch(...)
 227:c:\program files\daisytoolchain\arm-none-eabi\include\c++\10.2.1\bits\basic_string.tcc **** 	  {
 228:c:\program files\daisytoolchain\arm-none-eabi\include\c++\10.2.1\bits\basic_string.tcc **** 	    _M_dispose();
 229:c:\program files\daisytoolchain\arm-none-eabi\include\c++\10.2.1\bits\basic_string.tcc **** 	    __throw_exception_again;
 230:c:\program files\daisytoolchain\arm-none-eabi\include\c++\10.2.1\bits\basic_string.tcc **** 	  }
 231:c:\program files\daisytoolchain\arm-none-eabi\include\c++\10.2.1\bits\basic_string.tcc **** 
 232:c:\program files\daisytoolchain\arm-none-eabi\include\c++\10.2.1\bits\basic_string.tcc **** 	_M_set_length(__dnew);
 129              		.loc 1 232 15 view .LVU21
 130 0020 019C     		ldr	r4, [sp, #4]
 131              	.LVL5:
 132              	.LBB498:
 133              	.LBI464:
 214:c:\program files\daisytoolchain\arm-none-eabi\include\c++\10.2.1\bits\basic_string.h ****       {
 134              		.loc 3 214 7 is_stmt 1 view .LVU22
 135              	.LBB494:
 136              	.LBB473:
 137              	.LBI473:
 182:c:\program files\daisytoolchain\arm-none-eabi\include\c++\10.2.1\bits\basic_string.h ****       { _M_string_length = __length; }
 138              		.loc 3 182 7 view .LVU23
 139              	.LBE473:
 140              	.LBB477:
 141              	.LBB478:
 187:c:\program files\daisytoolchain\arm-none-eabi\include\c++\10.2.1\bits\basic_string.h **** 
 142              		.loc 3 187 28 is_stmt 0 view .LVU24
 143 0022 2868     		ldr	r0, [r5]
 144              	.LBE478:
 145              	.LBE477:
 146              	.LBB480:
 147              	.LBB474:
 183:c:\program files\daisytoolchain\arm-none-eabi\include\c++\10.2.1\bits\basic_string.h **** 
 148              		.loc 3 183 26 view .LVU25
 149 0024 6C60     		str	r4, [r5, #4]
 150              	.LVL6:
 183:c:\program files\daisytoolchain\arm-none-eabi\include\c++\10.2.1\bits\basic_string.h **** 
 151              		.loc 3 183 26 view .LVU26
ARM GAS  C:\Users\kenji\AppData\Local\Temp\cc5l7BVQ.s 			page 23


 152              	.LBE474:
 153              	.LBE480:
 154              	.LBB481:
 155              	.LBI477:
 186:c:\program files\daisytoolchain\arm-none-eabi\include\c++\10.2.1\bits\basic_string.h ****       { return _M_dataplus._M_p; }
 156              		.loc 3 186 7 is_stmt 1 view .LVU27
 186:c:\program files\daisytoolchain\arm-none-eabi\include\c++\10.2.1\bits\basic_string.h ****       { return _M_dataplus._M_p; }
 157              		.loc 3 186 7 is_stmt 0 view .LVU28
 158              	.LBE481:
 159              	.LBB482:
 160              	.LBI466:
 321:c:\program files\daisytoolchain\arm-none-eabi\include\c++\10.2.1\bits\char_traits.h ****       { __c1 = __c2; }
 161              		.loc 4 321 7 is_stmt 1 view .LVU29
 162              	.LBB468:
 163              		.loc 4 322 9 view .LVU30
 164              		.loc 4 322 14 is_stmt 0 view .LVU31
 165 0026 0355     		strb	r3, [r0, r4]
 166              	.LVL7:
 167              		.loc 4 322 14 view .LVU32
 168              	.LBE468:
 169              	.LBE482:
 170              	.LBE494:
 171              	.LBE498:
 233:c:\program files\daisytoolchain\arm-none-eabi\include\c++\10.2.1\bits\basic_string.tcc ****       }
 172              		.loc 1 233 7 view .LVU33
 173 0028 02B0     		add	sp, sp, #8
 174              		.cfi_remember_state
 175              		.cfi_def_cfa_offset 16
 176              		@ sp needed
 177 002a 70BD     		pop	{r4, r5, r6, pc}
 178              	.LVL8:
 179              	.L5:
 180              		.cfi_restore_state
 181              	.LBB499:
 182              	.LBB459:
 183              	.LBB455:
 184              	.LBB445:
 185              	.LBI445:
 346:c:\program files\daisytoolchain\arm-none-eabi\include\c++\10.2.1\bits\basic_string.h ****       {
 186              		.loc 3 346 7 is_stmt 1 view .LVU34
 187              	.LBB446:
 188              	.LBI446:
 323:c:\program files\daisytoolchain\arm-none-eabi\include\c++\10.2.1\bits\char_traits.h **** 
 324:c:\program files\daisytoolchain\arm-none-eabi\include\c++\10.2.1\bits\char_traits.h ****       static _GLIBCXX_CONSTEXPR bool
 325:c:\program files\daisytoolchain\arm-none-eabi\include\c++\10.2.1\bits\char_traits.h ****       eq(const char_type& __c1, const char_type& __c2) _GLIBCXX_NOEXCEPT
 326:c:\program files\daisytoolchain\arm-none-eabi\include\c++\10.2.1\bits\char_traits.h ****       { return __c1 == __c2; }
 327:c:\program files\daisytoolchain\arm-none-eabi\include\c++\10.2.1\bits\char_traits.h **** 
 328:c:\program files\daisytoolchain\arm-none-eabi\include\c++\10.2.1\bits\char_traits.h ****       static _GLIBCXX_CONSTEXPR bool
 329:c:\program files\daisytoolchain\arm-none-eabi\include\c++\10.2.1\bits\char_traits.h ****       lt(const char_type& __c1, const char_type& __c2) _GLIBCXX_NOEXCEPT
 330:c:\program files\daisytoolchain\arm-none-eabi\include\c++\10.2.1\bits\char_traits.h ****       {
 331:c:\program files\daisytoolchain\arm-none-eabi\include\c++\10.2.1\bits\char_traits.h **** 	// LWG 467.
 332:c:\program files\daisytoolchain\arm-none-eabi\include\c++\10.2.1\bits\char_traits.h **** 	return (static_cast<unsigned char>(__c1)
 333:c:\program files\daisytoolchain\arm-none-eabi\include\c++\10.2.1\bits\char_traits.h **** 		< static_cast<unsigned char>(__c2));
 334:c:\program files\daisytoolchain\arm-none-eabi\include\c++\10.2.1\bits\char_traits.h ****       }
 335:c:\program files\daisytoolchain\arm-none-eabi\include\c++\10.2.1\bits\char_traits.h **** 
 336:c:\program files\daisytoolchain\arm-none-eabi\include\c++\10.2.1\bits\char_traits.h ****       static _GLIBCXX17_CONSTEXPR int
 337:c:\program files\daisytoolchain\arm-none-eabi\include\c++\10.2.1\bits\char_traits.h ****       compare(const char_type* __s1, const char_type* __s2, size_t __n)
ARM GAS  C:\Users\kenji\AppData\Local\Temp\cc5l7BVQ.s 			page 24


 338:c:\program files\daisytoolchain\arm-none-eabi\include\c++\10.2.1\bits\char_traits.h ****       {
 339:c:\program files\daisytoolchain\arm-none-eabi\include\c++\10.2.1\bits\char_traits.h **** 	if (__n == 0)
 340:c:\program files\daisytoolchain\arm-none-eabi\include\c++\10.2.1\bits\char_traits.h **** 	  return 0;
 341:c:\program files\daisytoolchain\arm-none-eabi\include\c++\10.2.1\bits\char_traits.h **** #if __cplusplus >= 201703L
 342:c:\program files\daisytoolchain\arm-none-eabi\include\c++\10.2.1\bits\char_traits.h **** 	if (__builtin_constant_p(__n)
 343:c:\program files\daisytoolchain\arm-none-eabi\include\c++\10.2.1\bits\char_traits.h **** 	    && __constant_char_array_p(__s1, __n)
 344:c:\program files\daisytoolchain\arm-none-eabi\include\c++\10.2.1\bits\char_traits.h **** 	    && __constant_char_array_p(__s2, __n))
 345:c:\program files\daisytoolchain\arm-none-eabi\include\c++\10.2.1\bits\char_traits.h **** 	  return __gnu_cxx::char_traits<char_type>::compare(__s1, __s2, __n);
 346:c:\program files\daisytoolchain\arm-none-eabi\include\c++\10.2.1\bits\char_traits.h **** #endif
 347:c:\program files\daisytoolchain\arm-none-eabi\include\c++\10.2.1\bits\char_traits.h **** 	return __builtin_memcmp(__s1, __s2, __n);
 348:c:\program files\daisytoolchain\arm-none-eabi\include\c++\10.2.1\bits\char_traits.h ****       }
 349:c:\program files\daisytoolchain\arm-none-eabi\include\c++\10.2.1\bits\char_traits.h **** 
 350:c:\program files\daisytoolchain\arm-none-eabi\include\c++\10.2.1\bits\char_traits.h ****       static _GLIBCXX17_CONSTEXPR size_t
 351:c:\program files\daisytoolchain\arm-none-eabi\include\c++\10.2.1\bits\char_traits.h ****       length(const char_type* __s)
 352:c:\program files\daisytoolchain\arm-none-eabi\include\c++\10.2.1\bits\char_traits.h ****       {
 353:c:\program files\daisytoolchain\arm-none-eabi\include\c++\10.2.1\bits\char_traits.h **** #if __cplusplus >= 201703L
 354:c:\program files\daisytoolchain\arm-none-eabi\include\c++\10.2.1\bits\char_traits.h **** 	if (__constant_string_p(__s))
 355:c:\program files\daisytoolchain\arm-none-eabi\include\c++\10.2.1\bits\char_traits.h **** 	  return __gnu_cxx::char_traits<char_type>::length(__s);
 356:c:\program files\daisytoolchain\arm-none-eabi\include\c++\10.2.1\bits\char_traits.h **** #endif
 357:c:\program files\daisytoolchain\arm-none-eabi\include\c++\10.2.1\bits\char_traits.h **** 	return __builtin_strlen(__s);
 358:c:\program files\daisytoolchain\arm-none-eabi\include\c++\10.2.1\bits\char_traits.h ****       }
 359:c:\program files\daisytoolchain\arm-none-eabi\include\c++\10.2.1\bits\char_traits.h **** 
 360:c:\program files\daisytoolchain\arm-none-eabi\include\c++\10.2.1\bits\char_traits.h ****       static _GLIBCXX17_CONSTEXPR const char_type*
 361:c:\program files\daisytoolchain\arm-none-eabi\include\c++\10.2.1\bits\char_traits.h ****       find(const char_type* __s, size_t __n, const char_type& __a)
 362:c:\program files\daisytoolchain\arm-none-eabi\include\c++\10.2.1\bits\char_traits.h ****       {
 363:c:\program files\daisytoolchain\arm-none-eabi\include\c++\10.2.1\bits\char_traits.h **** 	if (__n == 0)
 364:c:\program files\daisytoolchain\arm-none-eabi\include\c++\10.2.1\bits\char_traits.h **** 	  return 0;
 365:c:\program files\daisytoolchain\arm-none-eabi\include\c++\10.2.1\bits\char_traits.h **** #if __cplusplus >= 201703L
 366:c:\program files\daisytoolchain\arm-none-eabi\include\c++\10.2.1\bits\char_traits.h **** 	if (__builtin_constant_p(__n)
 367:c:\program files\daisytoolchain\arm-none-eabi\include\c++\10.2.1\bits\char_traits.h **** 	    && __builtin_constant_p(__a)
 368:c:\program files\daisytoolchain\arm-none-eabi\include\c++\10.2.1\bits\char_traits.h **** 	    && __constant_char_array_p(__s, __n))
 369:c:\program files\daisytoolchain\arm-none-eabi\include\c++\10.2.1\bits\char_traits.h **** 	  return __gnu_cxx::char_traits<char_type>::find(__s, __n, __a);
 370:c:\program files\daisytoolchain\arm-none-eabi\include\c++\10.2.1\bits\char_traits.h **** #endif
 371:c:\program files\daisytoolchain\arm-none-eabi\include\c++\10.2.1\bits\char_traits.h **** 	return static_cast<const char_type*>(__builtin_memchr(__s, __a, __n));
 372:c:\program files\daisytoolchain\arm-none-eabi\include\c++\10.2.1\bits\char_traits.h ****       }
 373:c:\program files\daisytoolchain\arm-none-eabi\include\c++\10.2.1\bits\char_traits.h **** 
 374:c:\program files\daisytoolchain\arm-none-eabi\include\c++\10.2.1\bits\char_traits.h ****       static _GLIBCXX20_CONSTEXPR char_type*
 375:c:\program files\daisytoolchain\arm-none-eabi\include\c++\10.2.1\bits\char_traits.h ****       move(char_type* __s1, const char_type* __s2, size_t __n)
 376:c:\program files\daisytoolchain\arm-none-eabi\include\c++\10.2.1\bits\char_traits.h ****       {
 377:c:\program files\daisytoolchain\arm-none-eabi\include\c++\10.2.1\bits\char_traits.h **** 	if (__n == 0)
 378:c:\program files\daisytoolchain\arm-none-eabi\include\c++\10.2.1\bits\char_traits.h **** 	  return __s1;
 379:c:\program files\daisytoolchain\arm-none-eabi\include\c++\10.2.1\bits\char_traits.h **** #ifdef __cpp_lib_is_constant_evaluated
 380:c:\program files\daisytoolchain\arm-none-eabi\include\c++\10.2.1\bits\char_traits.h **** 	if (std::is_constant_evaluated())
 381:c:\program files\daisytoolchain\arm-none-eabi\include\c++\10.2.1\bits\char_traits.h **** 	  return __gnu_cxx::char_traits<char_type>::move(__s1, __s2, __n);
 382:c:\program files\daisytoolchain\arm-none-eabi\include\c++\10.2.1\bits\char_traits.h **** #endif
 383:c:\program files\daisytoolchain\arm-none-eabi\include\c++\10.2.1\bits\char_traits.h **** 	return static_cast<char_type*>(__builtin_memmove(__s1, __s2, __n));
 384:c:\program files\daisytoolchain\arm-none-eabi\include\c++\10.2.1\bits\char_traits.h ****       }
 385:c:\program files\daisytoolchain\arm-none-eabi\include\c++\10.2.1\bits\char_traits.h **** 
 386:c:\program files\daisytoolchain\arm-none-eabi\include\c++\10.2.1\bits\char_traits.h ****       static _GLIBCXX20_CONSTEXPR char_type*
 387:c:\program files\daisytoolchain\arm-none-eabi\include\c++\10.2.1\bits\char_traits.h ****       copy(char_type* __s1, const char_type* __s2, size_t __n)
 189              		.loc 4 387 7 view .LVU35
 190              	.LBB447:
 388:c:\program files\daisytoolchain\arm-none-eabi\include\c++\10.2.1\bits\char_traits.h ****       {
 389:c:\program files\daisytoolchain\arm-none-eabi\include\c++\10.2.1\bits\char_traits.h **** 	if (__n == 0)
 191              		.loc 4 389 2 view .LVU36
 192 002c 64B9     		cbnz	r4, .L4
 193              	.LVL9:
ARM GAS  C:\Users\kenji\AppData\Local\Temp\cc5l7BVQ.s 			page 25


 194              		.loc 4 389 2 is_stmt 0 view .LVU37
 195              	.LBE447:
 196              	.LBE446:
 197              	.LBE445:
 198              	.LBE455:
 199              	.LBE459:
 200              	.LBE499:
 201              	.LBB500:
 214:c:\program files\daisytoolchain\arm-none-eabi\include\c++\10.2.1\bits\basic_string.h ****       {
 202              		.loc 3 214 7 is_stmt 1 view .LVU38
 203              	.LBB495:
 204              	.LBB483:
 182:c:\program files\daisytoolchain\arm-none-eabi\include\c++\10.2.1\bits\basic_string.h ****       { _M_string_length = __length; }
 205              		.loc 3 182 7 view .LVU39
 206              	.LBE483:
 207              	.LBB484:
 208              	.LBB469:
 322:c:\program files\daisytoolchain\arm-none-eabi\include\c++\10.2.1\bits\char_traits.h **** 
 209              		.loc 4 322 14 is_stmt 0 view .LVU40
 210 002e 0023     		movs	r3, #0
 211              	.LBE469:
 212              	.LBE484:
 213              	.LBB485:
 214              	.LBB475:
 183:c:\program files\daisytoolchain\arm-none-eabi\include\c++\10.2.1\bits\basic_string.h **** 
 215              		.loc 3 183 26 view .LVU41
 216 0030 6C60     		str	r4, [r5, #4]
 217              	.LVL10:
 183:c:\program files\daisytoolchain\arm-none-eabi\include\c++\10.2.1\bits\basic_string.h **** 
 218              		.loc 3 183 26 view .LVU42
 219              	.LBE475:
 220              	.LBE485:
 221              	.LBB486:
 186:c:\program files\daisytoolchain\arm-none-eabi\include\c++\10.2.1\bits\basic_string.h ****       { return _M_dataplus._M_p; }
 222              		.loc 3 186 7 is_stmt 1 view .LVU43
 186:c:\program files\daisytoolchain\arm-none-eabi\include\c++\10.2.1\bits\basic_string.h ****       { return _M_dataplus._M_p; }
 223              		.loc 3 186 7 is_stmt 0 view .LVU44
 224              	.LBE486:
 225              	.LBB487:
 321:c:\program files\daisytoolchain\arm-none-eabi\include\c++\10.2.1\bits\char_traits.h ****       { __c1 = __c2; }
 226              		.loc 4 321 7 is_stmt 1 view .LVU45
 227              	.LBB470:
 322:c:\program files\daisytoolchain\arm-none-eabi\include\c++\10.2.1\bits\char_traits.h **** 
 228              		.loc 4 322 9 view .LVU46
 322:c:\program files\daisytoolchain\arm-none-eabi\include\c++\10.2.1\bits\char_traits.h **** 
 229              		.loc 4 322 14 is_stmt 0 view .LVU47
 230 0032 0355     		strb	r3, [r0, r4]
 231              	.LVL11:
 322:c:\program files\daisytoolchain\arm-none-eabi\include\c++\10.2.1\bits\char_traits.h **** 
 232              		.loc 4 322 14 view .LVU48
 233              	.LBE470:
 234              	.LBE487:
 235              	.LBE495:
 236              	.LBE500:
 237              		.loc 1 233 7 view .LVU49
 238 0034 02B0     		add	sp, sp, #8
 239              		.cfi_remember_state
ARM GAS  C:\Users\kenji\AppData\Local\Temp\cc5l7BVQ.s 			page 26


 240              		.cfi_def_cfa_offset 16
 241              		@ sp needed
 242 0036 70BD     		pop	{r4, r5, r6, pc}
 243              	.LVL12:
 244              	.L20:
 245              		.cfi_restore_state
 219:c:\program files\daisytoolchain\arm-none-eabi\include\c++\10.2.1\bits\basic_string.tcc **** 	    _M_capacity(__dnew);
 246              		.loc 1 219 13 view .LVU50
 247 0038 0022     		movs	r2, #0
 248              	.LVL13:
 219:c:\program files\daisytoolchain\arm-none-eabi\include\c++\10.2.1\bits\basic_string.tcc **** 	    _M_capacity(__dnew);
 249              		.loc 1 219 13 view .LVU51
 250 003a 01A9     		add	r1, sp, #4
 251              	.LVL14:
 219:c:\program files\daisytoolchain\arm-none-eabi\include\c++\10.2.1\bits\basic_string.tcc **** 	    _M_capacity(__dnew);
 252              		.loc 1 219 13 view .LVU52
 253 003c 2846     		mov	r0, r5
 254              	.LVL15:
 219:c:\program files\daisytoolchain\arm-none-eabi\include\c++\10.2.1\bits\basic_string.tcc **** 	    _M_capacity(__dnew);
 255              		.loc 1 219 13 view .LVU53
 256 003e FFF7FEFF 		bl	_ZNSt7__cxx1112basic_stringIcSt11char_traitsIcESaIcEE9_M_createERjj
 257              	.LVL16:
 258              	.LBB501:
 259              	.LBB502:
 211:c:\program files\daisytoolchain\arm-none-eabi\include\c++\10.2.1\bits\basic_string.h **** 
 260              		.loc 3 211 31 view .LVU54
 261 0042 019B     		ldr	r3, [sp, #4]
 262              	.LVL17:
 211:c:\program files\daisytoolchain\arm-none-eabi\include\c++\10.2.1\bits\basic_string.h **** 
 263              		.loc 3 211 31 view .LVU55
 264              	.LBE502:
 265              	.LBE501:
 266              	.LBB504:
 267              	.LBI504:
 178:c:\program files\daisytoolchain\arm-none-eabi\include\c++\10.2.1\bits\basic_string.h ****       { _M_dataplus._M_p = __p; }
 268              		.loc 3 178 7 is_stmt 1 view .LVU56
 269              	.LBB505:
 179:c:\program files\daisytoolchain\arm-none-eabi\include\c++\10.2.1\bits\basic_string.h **** 
 270              		.loc 3 179 26 is_stmt 0 view .LVU57
 271 0044 2860     		str	r0, [r5]
 272              	.LVL18:
 179:c:\program files\daisytoolchain\arm-none-eabi\include\c++\10.2.1\bits\basic_string.h **** 
 273              		.loc 3 179 26 view .LVU58
 274              	.LBE505:
 275              	.LBE504:
 276              	.LBB506:
 277              	.LBI501:
 210:c:\program files\daisytoolchain\arm-none-eabi\include\c++\10.2.1\bits\basic_string.h ****       { _M_allocated_capacity = __capacity; }
 278              		.loc 3 210 7 is_stmt 1 view .LVU59
 210:c:\program files\daisytoolchain\arm-none-eabi\include\c++\10.2.1\bits\basic_string.h ****       { _M_allocated_capacity = __capacity; }
 279              		.loc 3 210 7 is_stmt 0 view .LVU60
 280              	.LBE506:
 281              	.LBB507:
 186:c:\program files\daisytoolchain\arm-none-eabi\include\c++\10.2.1\bits\basic_string.h ****       { return _M_dataplus._M_p; }
 282              		.loc 3 186 7 is_stmt 1 view .LVU61
 186:c:\program files\daisytoolchain\arm-none-eabi\include\c++\10.2.1\bits\basic_string.h ****       { return _M_dataplus._M_p; }
 283              		.loc 3 186 7 is_stmt 0 view .LVU62
ARM GAS  C:\Users\kenji\AppData\Local\Temp\cc5l7BVQ.s 			page 27


 284              	.LBE507:
 285              	.LBB508:
 286              		.loc 3 396 7 is_stmt 1 view .LVU63
 287              	.LBB460:
 346:c:\program files\daisytoolchain\arm-none-eabi\include\c++\10.2.1\bits\basic_string.h ****       {
 288              		.loc 3 346 7 view .LVU64
 289              	.LBB456:
 290              	.LBB452:
 346:c:\program files\daisytoolchain\arm-none-eabi\include\c++\10.2.1\bits\basic_string.h ****       {
 291              		.loc 3 346 7 view .LVU65
 292              	.LBB450:
 387:c:\program files\daisytoolchain\arm-none-eabi\include\c++\10.2.1\bits\char_traits.h ****       {
 293              		.loc 4 387 7 view .LVU66
 294              	.LBB448:
 295              		.loc 4 389 2 view .LVU67
 296              	.LBE448:
 297              	.LBE450:
 298              	.LBE452:
 299              	.LBE456:
 300              	.LBE460:
 301              	.LBE508:
 302              	.LBB509:
 303              	.LBB503:
 211:c:\program files\daisytoolchain\arm-none-eabi\include\c++\10.2.1\bits\basic_string.h **** 
 304              		.loc 3 211 31 is_stmt 0 view .LVU68
 305 0046 AB60     		str	r3, [r5, #8]
 306              	.L4:
 211:c:\program files\daisytoolchain\arm-none-eabi\include\c++\10.2.1\bits\basic_string.h **** 
 307              		.loc 3 211 31 view .LVU69
 308              	.LBE503:
 309              	.LBE509:
 310              	.LBB510:
 311              	.LBB461:
 312              	.LBB457:
 313              	.LBB453:
 314              	.LBB451:
 315              	.LBB449:
 390:c:\program files\daisytoolchain\arm-none-eabi\include\c++\10.2.1\bits\char_traits.h **** 	  return __s1;
 391:c:\program files\daisytoolchain\arm-none-eabi\include\c++\10.2.1\bits\char_traits.h **** #ifdef __cpp_lib_is_constant_evaluated
 392:c:\program files\daisytoolchain\arm-none-eabi\include\c++\10.2.1\bits\char_traits.h **** 	if (std::is_constant_evaluated())
 393:c:\program files\daisytoolchain\arm-none-eabi\include\c++\10.2.1\bits\char_traits.h **** 	  return __gnu_cxx::char_traits<char_type>::copy(__s1, __s2, __n);
 394:c:\program files\daisytoolchain\arm-none-eabi\include\c++\10.2.1\bits\char_traits.h **** #endif
 395:c:\program files\daisytoolchain\arm-none-eabi\include\c++\10.2.1\bits\char_traits.h **** 	return static_cast<char_type*>(__builtin_memcpy(__s1, __s2, __n));
 316              		.loc 4 395 2 is_stmt 1 view .LVU70
 317              		.loc 4 395 49 is_stmt 0 view .LVU71
 318 0048 2246     		mov	r2, r4
 319 004a 3146     		mov	r1, r6
 320 004c FFF7FEFF 		bl	memcpy
 321              	.LVL19:
 322              		.loc 4 395 49 view .LVU72
 323              	.LBE449:
 324              	.LBE451:
 325              	.LBE453:
 326              	.LBE457:
 327              	.LBE461:
 328              	.LBE510:
 232:c:\program files\daisytoolchain\arm-none-eabi\include\c++\10.2.1\bits\basic_string.tcc ****       }
ARM GAS  C:\Users\kenji\AppData\Local\Temp\cc5l7BVQ.s 			page 28


 329              		.loc 1 232 15 view .LVU73
 330 0050 019C     		ldr	r4, [sp, #4]
 331              	.LVL20:
 332              	.LBB511:
 333              	.LBB496:
 334              	.LBB488:
 335              	.LBB479:
 187:c:\program files\daisytoolchain\arm-none-eabi\include\c++\10.2.1\bits\basic_string.h **** 
 336              		.loc 3 187 28 view .LVU74
 337 0052 2868     		ldr	r0, [r5]
 338              	.LVL21:
 187:c:\program files\daisytoolchain\arm-none-eabi\include\c++\10.2.1\bits\basic_string.h **** 
 339              		.loc 3 187 28 view .LVU75
 340              	.LBE479:
 341              	.LBE488:
 342              	.LBE496:
 214:c:\program files\daisytoolchain\arm-none-eabi\include\c++\10.2.1\bits\basic_string.h ****       {
 343              		.loc 3 214 7 is_stmt 1 view .LVU76
 344              	.LBB497:
 345              	.LBB489:
 182:c:\program files\daisytoolchain\arm-none-eabi\include\c++\10.2.1\bits\basic_string.h ****       { _M_string_length = __length; }
 346              		.loc 3 182 7 view .LVU77
 347              	.LBE489:
 348              	.LBB490:
 349              	.LBB471:
 322:c:\program files\daisytoolchain\arm-none-eabi\include\c++\10.2.1\bits\char_traits.h **** 
 350              		.loc 4 322 14 is_stmt 0 view .LVU78
 351 0054 0023     		movs	r3, #0
 352              	.LBE471:
 353              	.LBE490:
 354              	.LBB491:
 355              	.LBB476:
 183:c:\program files\daisytoolchain\arm-none-eabi\include\c++\10.2.1\bits\basic_string.h **** 
 356              		.loc 3 183 26 view .LVU79
 357 0056 6C60     		str	r4, [r5, #4]
 358              	.LVL22:
 183:c:\program files\daisytoolchain\arm-none-eabi\include\c++\10.2.1\bits\basic_string.h **** 
 359              		.loc 3 183 26 view .LVU80
 360              	.LBE476:
 361              	.LBE491:
 362              	.LBB492:
 186:c:\program files\daisytoolchain\arm-none-eabi\include\c++\10.2.1\bits\basic_string.h ****       { return _M_dataplus._M_p; }
 363              		.loc 3 186 7 is_stmt 1 view .LVU81
 186:c:\program files\daisytoolchain\arm-none-eabi\include\c++\10.2.1\bits\basic_string.h ****       { return _M_dataplus._M_p; }
 364              		.loc 3 186 7 is_stmt 0 view .LVU82
 365              	.LBE492:
 366              	.LBB493:
 321:c:\program files\daisytoolchain\arm-none-eabi\include\c++\10.2.1\bits\char_traits.h ****       { __c1 = __c2; }
 367              		.loc 4 321 7 is_stmt 1 view .LVU83
 368              	.LBB472:
 322:c:\program files\daisytoolchain\arm-none-eabi\include\c++\10.2.1\bits\char_traits.h **** 
 369              		.loc 4 322 9 view .LVU84
 322:c:\program files\daisytoolchain\arm-none-eabi\include\c++\10.2.1\bits\char_traits.h **** 
 370              		.loc 4 322 14 is_stmt 0 view .LVU85
 371 0058 0355     		strb	r3, [r0, r4]
 372              	.LVL23:
 322:c:\program files\daisytoolchain\arm-none-eabi\include\c++\10.2.1\bits\char_traits.h **** 
ARM GAS  C:\Users\kenji\AppData\Local\Temp\cc5l7BVQ.s 			page 29


 373              		.loc 4 322 14 view .LVU86
 374              	.LBE472:
 375              	.LBE493:
 376              	.LBE497:
 377              	.LBE511:
 378              		.loc 1 233 7 view .LVU87
 379 005a 02B0     		add	sp, sp, #8
 380              		.cfi_remember_state
 381              		.cfi_def_cfa_offset 16
 382              		@ sp needed
 383 005c 70BD     		pop	{r4, r5, r6, pc}
 384              	.LVL24:
 385              	.L19:
 386              		.cfi_restore_state
 212:c:\program files\daisytoolchain\arm-none-eabi\include\c++\10.2.1\bits\basic_string.tcc **** 				       "_M_construct null not valid"));
 387              		.loc 1 212 28 view .LVU88
 388 005e 0148     		ldr	r0, .L21
 389              	.LVL25:
 212:c:\program files\daisytoolchain\arm-none-eabi\include\c++\10.2.1\bits\basic_string.tcc **** 				       "_M_construct null not valid"));
 390              		.loc 1 212 28 view .LVU89
 391 0060 FFF7FEFF 		bl	_ZSt19__throw_logic_errorPKc
 392              	.LVL26:
 393              	.L22:
 212:c:\program files\daisytoolchain\arm-none-eabi\include\c++\10.2.1\bits\basic_string.tcc **** 				       "_M_construct null not valid"));
 394              		.loc 1 212 28 view .LVU90
 395              		.align	2
 396              	.L21:
 397 0064 00000000 		.word	.LC0
 398              		.cfi_endproc
 399              	.LFE3691:
 401              		.section	.text._ZN10kiwi_synth13PatchSettingsC2EPNS_9MultiPotsE,"ax",%progbits
 402              		.align	1
 403              		.p2align 2,,3
 404              		.global	_ZN10kiwi_synth13PatchSettingsC2EPNS_9MultiPotsE
 405              		.syntax unified
 406              		.thumb
 407              		.thumb_func
 408              		.fpu fpv5-d16
 410              	_ZN10kiwi_synth13PatchSettingsC2EPNS_9MultiPotsE:
 411              	.LVL27:
 412              	.LFB3169:
 413              		.file 5 "KiwiSynth/Patch/PatchSettings.cpp"
   1:KiwiSynth/Patch/PatchSettings.cpp **** #include "PatchSettings.h"
   2:KiwiSynth/Patch/PatchSettings.cpp **** 
   3:KiwiSynth/Patch/PatchSettings.cpp **** using namespace daisy;
   4:KiwiSynth/Patch/PatchSettings.cpp **** using namespace daisy::seed;
   5:KiwiSynth/Patch/PatchSettings.cpp **** 
   6:KiwiSynth/Patch/PatchSettings.cpp **** namespace kiwi_synth
   7:KiwiSynth/Patch/PatchSettings.cpp **** {
   8:KiwiSynth/Patch/PatchSettings.cpp ****     PatchSettings::PatchSettings(MultiPots* multiPots)
 414              		.loc 5 8 5 is_stmt 1 view -0
 415              		.cfi_startproc
 416              		@ args = 0, pretend = 0, frame = 0
 417              		@ frame_needed = 0, uses_anonymous_args = 0
 418              		@ link register save eliminated.
 419              	.LBB512:
   9:KiwiSynth/Patch/PatchSettings.cpp ****     {
ARM GAS  C:\Users\kenji\AppData\Local\Temp\cc5l7BVQ.s 			page 30


  10:KiwiSynth/Patch/PatchSettings.cpp ****         this->multiPots = multiPots;
 420              		.loc 5 10 9 view .LVU92
 421              		.loc 5 10 25 is_stmt 0 view .LVU93
 422 0000 C0F88011 		str	r1, [r0, #384]
 423              	.LBE512:
  11:KiwiSynth/Patch/PatchSettings.cpp ****     }
 424              		.loc 5 11 5 view .LVU94
 425 0004 7047     		bx	lr
 426              		.cfi_endproc
 427              	.LFE3169:
 429              		.global	_ZN10kiwi_synth13PatchSettingsC1EPNS_9MultiPotsE
 430              		.thumb_set _ZN10kiwi_synth13PatchSettingsC1EPNS_9MultiPotsE,_ZN10kiwi_synth13PatchSettingsC2EPNS_9
 431 0006 00BF     		.section	.text._ZN10kiwi_synth13PatchSettings8setValueENS_12PatchSettingEi,"ax",%progbits
 432              		.align	1
 433              		.p2align 2,,3
 434              		.global	_ZN10kiwi_synth13PatchSettings8setValueENS_12PatchSettingEi
 435              		.syntax unified
 436              		.thumb
 437              		.thumb_func
 438              		.fpu fpv5-d16
 440              	_ZN10kiwi_synth13PatchSettings8setValueENS_12PatchSettingEi:
 441              	.LVL28:
 442              	.LFB3171:
  12:KiwiSynth/Patch/PatchSettings.cpp **** 
  13:KiwiSynth/Patch/PatchSettings.cpp ****     void PatchSettings::setValue(PatchSetting setting, int value)
  14:KiwiSynth/Patch/PatchSettings.cpp ****     {
 443              		.loc 5 14 5 is_stmt 1 view -0
 444              		.cfi_startproc
 445              		@ args = 0, pretend = 0, frame = 0
 446              		@ frame_needed = 0, uses_anonymous_args = 0
 447              		@ link register save eliminated.
  15:KiwiSynth/Patch/PatchSettings.cpp ****         switch(setting) {
 448              		.loc 5 15 9 view .LVU96
 449 0000 5C29     		cmp	r1, #92
 450 0002 32D8     		bhi	.L24
 451 0004 DFE801F0 		tbb	[pc, r1]
 452              	.L27:
 453 0008 89       		.byte	(.L57-.L27)/2
 454 0009 31       		.byte	(.L24-.L27)/2
 455 000a 31       		.byte	(.L24-.L27)/2
 456 000b 31       		.byte	(.L24-.L27)/2
 457 000c 86       		.byte	(.L56-.L27)/2
 458 000d 31       		.byte	(.L24-.L27)/2
 459 000e 31       		.byte	(.L24-.L27)/2
 460 000f 31       		.byte	(.L24-.L27)/2
 461 0010 83       		.byte	(.L55-.L27)/2
 462 0011 31       		.byte	(.L24-.L27)/2
 463 0012 31       		.byte	(.L24-.L27)/2
 464 0013 80       		.byte	(.L54-.L27)/2
 465 0014 7D       		.byte	(.L53-.L27)/2
 466 0015 31       		.byte	(.L24-.L27)/2
 467 0016 31       		.byte	(.L24-.L27)/2
 468 0017 7A       		.byte	(.L52-.L27)/2
 469 0018 31       		.byte	(.L24-.L27)/2
 470 0019 31       		.byte	(.L24-.L27)/2
 471 001a 77       		.byte	(.L51-.L27)/2
 472 001b 74       		.byte	(.L50-.L27)/2
ARM GAS  C:\Users\kenji\AppData\Local\Temp\cc5l7BVQ.s 			page 31


 473 001c 31       		.byte	(.L24-.L27)/2
 474 001d 31       		.byte	(.L24-.L27)/2
 475 001e 31       		.byte	(.L24-.L27)/2
 476 001f 31       		.byte	(.L24-.L27)/2
 477 0020 31       		.byte	(.L24-.L27)/2
 478 0021 31       		.byte	(.L24-.L27)/2
 479 0022 31       		.byte	(.L24-.L27)/2
 480 0023 71       		.byte	(.L49-.L27)/2
 481 0024 31       		.byte	(.L24-.L27)/2
 482 0025 31       		.byte	(.L24-.L27)/2
 483 0026 31       		.byte	(.L24-.L27)/2
 484 0027 31       		.byte	(.L24-.L27)/2
 485 0028 31       		.byte	(.L24-.L27)/2
 486 0029 31       		.byte	(.L24-.L27)/2
 487 002a 31       		.byte	(.L24-.L27)/2
 488 002b 31       		.byte	(.L24-.L27)/2
 489 002c 31       		.byte	(.L24-.L27)/2
 490 002d 31       		.byte	(.L24-.L27)/2
 491 002e 31       		.byte	(.L24-.L27)/2
 492 002f 31       		.byte	(.L24-.L27)/2
 493 0030 31       		.byte	(.L24-.L27)/2
 494 0031 31       		.byte	(.L24-.L27)/2
 495 0032 31       		.byte	(.L24-.L27)/2
 496 0033 31       		.byte	(.L24-.L27)/2
 497 0034 31       		.byte	(.L24-.L27)/2
 498 0035 6E       		.byte	(.L48-.L27)/2
 499 0036 31       		.byte	(.L24-.L27)/2
 500 0037 31       		.byte	(.L24-.L27)/2
 501 0038 31       		.byte	(.L24-.L27)/2
 502 0039 31       		.byte	(.L24-.L27)/2
 503 003a 31       		.byte	(.L24-.L27)/2
 504 003b 6B       		.byte	(.L47-.L27)/2
 505 003c 31       		.byte	(.L24-.L27)/2
 506 003d 31       		.byte	(.L24-.L27)/2
 507 003e 31       		.byte	(.L24-.L27)/2
 508 003f 31       		.byte	(.L24-.L27)/2
 509 0040 31       		.byte	(.L24-.L27)/2
 510 0041 31       		.byte	(.L24-.L27)/2
 511 0042 31       		.byte	(.L24-.L27)/2
 512 0043 68       		.byte	(.L46-.L27)/2
 513 0044 65       		.byte	(.L45-.L27)/2
 514 0045 31       		.byte	(.L24-.L27)/2
 515 0046 62       		.byte	(.L44-.L27)/2
 516 0047 5F       		.byte	(.L43-.L27)/2
 517 0048 31       		.byte	(.L24-.L27)/2
 518 0049 5C       		.byte	(.L42-.L27)/2
 519 004a 59       		.byte	(.L41-.L27)/2
 520 004b 31       		.byte	(.L24-.L27)/2
 521 004c 56       		.byte	(.L40-.L27)/2
 522 004d 53       		.byte	(.L39-.L27)/2
 523 004e 31       		.byte	(.L24-.L27)/2
 524 004f 50       		.byte	(.L38-.L27)/2
 525 0050 4D       		.byte	(.L37-.L27)/2
 526 0051 31       		.byte	(.L24-.L27)/2
 527 0052 4A       		.byte	(.L36-.L27)/2
 528 0053 47       		.byte	(.L35-.L27)/2
 529 0054 31       		.byte	(.L24-.L27)/2
ARM GAS  C:\Users\kenji\AppData\Local\Temp\cc5l7BVQ.s 			page 32


 530 0055 44       		.byte	(.L34-.L27)/2
 531 0056 41       		.byte	(.L33-.L27)/2
 532 0057 31       		.byte	(.L24-.L27)/2
 533 0058 3E       		.byte	(.L32-.L27)/2
 534 0059 3B       		.byte	(.L31-.L27)/2
 535 005a 31       		.byte	(.L24-.L27)/2
 536 005b 31       		.byte	(.L24-.L27)/2
 537 005c 31       		.byte	(.L24-.L27)/2
 538 005d 31       		.byte	(.L24-.L27)/2
 539 005e 31       		.byte	(.L24-.L27)/2
 540 005f 31       		.byte	(.L24-.L27)/2
 541 0060 31       		.byte	(.L24-.L27)/2
 542 0061 38       		.byte	(.L30-.L27)/2
 543 0062 35       		.byte	(.L29-.L27)/2
 544 0063 32       		.byte	(.L28-.L27)/2
 545 0064 2F       		.byte	(.L26-.L27)/2
 546 0065 00       		.p2align 1
 547              	.L26:
  16:KiwiSynth/Patch/PatchSettings.cpp ****             case VCO_VOICES:
  17:KiwiSynth/Patch/PatchSettings.cpp ****                 intValues[0] = value;
  18:KiwiSynth/Patch/PatchSettings.cpp ****                 break;
  19:KiwiSynth/Patch/PatchSettings.cpp ****             case VCO_1_WAVEFORM:
  20:KiwiSynth/Patch/PatchSettings.cpp ****                 intValues[1] = value;
  21:KiwiSynth/Patch/PatchSettings.cpp ****                 break;
  22:KiwiSynth/Patch/PatchSettings.cpp ****             case VCO_2_WAVEFORM:
  23:KiwiSynth/Patch/PatchSettings.cpp ****                 intValues[2] = value;
  24:KiwiSynth/Patch/PatchSettings.cpp ****                 break;
  25:KiwiSynth/Patch/PatchSettings.cpp ****             case VCO_2_OCTAVE:
  26:KiwiSynth/Patch/PatchSettings.cpp ****                 intValues[3] = value;
  27:KiwiSynth/Patch/PatchSettings.cpp ****                 break;
  28:KiwiSynth/Patch/PatchSettings.cpp ****             case VCO_2_INTERVAL:
  29:KiwiSynth/Patch/PatchSettings.cpp ****                 intValues[4] = value;
  30:KiwiSynth/Patch/PatchSettings.cpp ****                 break;
  31:KiwiSynth/Patch/PatchSettings.cpp ****             case VCO_3_WAVEFORM:
  32:KiwiSynth/Patch/PatchSettings.cpp ****                 intValues[5] = value;
  33:KiwiSynth/Patch/PatchSettings.cpp ****                 break;
  34:KiwiSynth/Patch/PatchSettings.cpp ****             case VCO_3_OCTAVE:
  35:KiwiSynth/Patch/PatchSettings.cpp ****                 intValues[6] = value;
  36:KiwiSynth/Patch/PatchSettings.cpp ****                 break;
  37:KiwiSynth/Patch/PatchSettings.cpp ****             case VCO_3_INTERVAL:
  38:KiwiSynth/Patch/PatchSettings.cpp ****                 intValues[7] = value;
  39:KiwiSynth/Patch/PatchSettings.cpp ****                 break;
  40:KiwiSynth/Patch/PatchSettings.cpp ****             case VCF_FILTER_TYPE:
  41:KiwiSynth/Patch/PatchSettings.cpp ****                 intValues[8] = value;
  42:KiwiSynth/Patch/PatchSettings.cpp ****                 break;
  43:KiwiSynth/Patch/PatchSettings.cpp ****             case LFO_1_WAVEFORM:
  44:KiwiSynth/Patch/PatchSettings.cpp ****                 intValues[9] = value;
  45:KiwiSynth/Patch/PatchSettings.cpp ****                 break;
  46:KiwiSynth/Patch/PatchSettings.cpp ****             case LFO_2_WAVEFORM:
  47:KiwiSynth/Patch/PatchSettings.cpp ****                 intValues[10] = value;
  48:KiwiSynth/Patch/PatchSettings.cpp ****                 break;
  49:KiwiSynth/Patch/PatchSettings.cpp ****             case MOD_1_SOURCE:
  50:KiwiSynth/Patch/PatchSettings.cpp ****                 intValues[11] = value;
  51:KiwiSynth/Patch/PatchSettings.cpp ****                 break;
  52:KiwiSynth/Patch/PatchSettings.cpp ****             case MOD_1_DESTINATION:
  53:KiwiSynth/Patch/PatchSettings.cpp ****                 intValues[12] = value;
  54:KiwiSynth/Patch/PatchSettings.cpp ****                 break;
ARM GAS  C:\Users\kenji\AppData\Local\Temp\cc5l7BVQ.s 			page 33


  55:KiwiSynth/Patch/PatchSettings.cpp ****             case MOD_2_SOURCE:
  56:KiwiSynth/Patch/PatchSettings.cpp ****                 intValues[13] = value;
  57:KiwiSynth/Patch/PatchSettings.cpp ****                 break;
  58:KiwiSynth/Patch/PatchSettings.cpp ****             case MOD_2_DESTINATION:
  59:KiwiSynth/Patch/PatchSettings.cpp ****                 intValues[14] = value;
  60:KiwiSynth/Patch/PatchSettings.cpp ****                 break;
  61:KiwiSynth/Patch/PatchSettings.cpp ****             case MOD_3_SOURCE:
  62:KiwiSynth/Patch/PatchSettings.cpp ****                 intValues[15] = value;
  63:KiwiSynth/Patch/PatchSettings.cpp ****                 break;
  64:KiwiSynth/Patch/PatchSettings.cpp ****             case MOD_3_DESTINATION:
  65:KiwiSynth/Patch/PatchSettings.cpp ****                 intValues[16] = value;
  66:KiwiSynth/Patch/PatchSettings.cpp ****                 break;
  67:KiwiSynth/Patch/PatchSettings.cpp ****             case MOD_4_SOURCE:
  68:KiwiSynth/Patch/PatchSettings.cpp ****                 intValues[17] = value;
  69:KiwiSynth/Patch/PatchSettings.cpp ****                 break;
  70:KiwiSynth/Patch/PatchSettings.cpp ****             case MOD_4_DESTINATION:
  71:KiwiSynth/Patch/PatchSettings.cpp ****                 intValues[18] = value;
  72:KiwiSynth/Patch/PatchSettings.cpp ****                 break;
  73:KiwiSynth/Patch/PatchSettings.cpp ****             case MOD_5_SOURCE:
  74:KiwiSynth/Patch/PatchSettings.cpp ****                 intValues[19] = value;
  75:KiwiSynth/Patch/PatchSettings.cpp ****                 break;
  76:KiwiSynth/Patch/PatchSettings.cpp ****             case MOD_5_DESTINATION:
  77:KiwiSynth/Patch/PatchSettings.cpp ****                 intValues[20] = value;
  78:KiwiSynth/Patch/PatchSettings.cpp ****                 break;
  79:KiwiSynth/Patch/PatchSettings.cpp ****             case MOD_6_SOURCE:
  80:KiwiSynth/Patch/PatchSettings.cpp ****                 intValues[21] = value;
  81:KiwiSynth/Patch/PatchSettings.cpp ****                 break;
  82:KiwiSynth/Patch/PatchSettings.cpp ****             case MOD_6_DESTINATION:
  83:KiwiSynth/Patch/PatchSettings.cpp ****                 intValues[22] = value;
  84:KiwiSynth/Patch/PatchSettings.cpp ****                 break;
  85:KiwiSynth/Patch/PatchSettings.cpp ****             case MOD_7_SOURCE:
  86:KiwiSynth/Patch/PatchSettings.cpp ****                 intValues[23] = value;
  87:KiwiSynth/Patch/PatchSettings.cpp ****                 break;
  88:KiwiSynth/Patch/PatchSettings.cpp ****             case MOD_7_DESTINATION:
  89:KiwiSynth/Patch/PatchSettings.cpp ****                 intValues[24] = value;
  90:KiwiSynth/Patch/PatchSettings.cpp ****                 break;
  91:KiwiSynth/Patch/PatchSettings.cpp ****             case MOD_8_SOURCE:
  92:KiwiSynth/Patch/PatchSettings.cpp ****                 intValues[25] = value;
  93:KiwiSynth/Patch/PatchSettings.cpp ****                 break;
  94:KiwiSynth/Patch/PatchSettings.cpp ****             case MOD_8_DESTINATION:
  95:KiwiSynth/Patch/PatchSettings.cpp ****                 intValues[26] = value;
  96:KiwiSynth/Patch/PatchSettings.cpp ****                 break;
  97:KiwiSynth/Patch/PatchSettings.cpp ****             case GEN_BALANCE:
  98:KiwiSynth/Patch/PatchSettings.cpp ****                 intValues[27] = value;
  99:KiwiSynth/Patch/PatchSettings.cpp ****                 break;
 100:KiwiSynth/Patch/PatchSettings.cpp ****             case GEN_SELECT:
 101:KiwiSynth/Patch/PatchSettings.cpp ****                 intValues[28] = value;
 102:KiwiSynth/Patch/PatchSettings.cpp ****                 break;
 103:KiwiSynth/Patch/PatchSettings.cpp ****             case GEN_FX_SELECT:
 104:KiwiSynth/Patch/PatchSettings.cpp ****                 intValues[29] = value;
 105:KiwiSynth/Patch/PatchSettings.cpp ****                 break;
 106:KiwiSynth/Patch/PatchSettings.cpp ****             case GEN_REVERB_SELECT:
 548              		.loc 5 106 13 view .LVU97
 107:KiwiSynth/Patch/PatchSettings.cpp ****                 intValues[30] = value;
 549              		.loc 5 107 17 view .LVU98
 550              		.loc 5 107 31 is_stmt 0 view .LVU99
 551 0066 C0F87021 		str	r2, [r0, #368]
ARM GAS  C:\Users\kenji\AppData\Local\Temp\cc5l7BVQ.s 			page 34


 108:KiwiSynth/Patch/PatchSettings.cpp ****                 break;
 552              		.loc 5 108 17 is_stmt 1 view .LVU100
 553              	.L24:
 109:KiwiSynth/Patch/PatchSettings.cpp ****             default:
 110:KiwiSynth/Patch/PatchSettings.cpp ****                 break;
 111:KiwiSynth/Patch/PatchSettings.cpp ****         }
 112:KiwiSynth/Patch/PatchSettings.cpp ****     }
 554              		.loc 5 112 5 is_stmt 0 view .LVU101
 555 006a 7047     		bx	lr
 556              	.L28:
 103:KiwiSynth/Patch/PatchSettings.cpp ****                 intValues[29] = value;
 557              		.loc 5 103 13 is_stmt 1 view .LVU102
 104:KiwiSynth/Patch/PatchSettings.cpp ****                 break;
 558              		.loc 5 104 17 view .LVU103
 104:KiwiSynth/Patch/PatchSettings.cpp ****                 break;
 559              		.loc 5 104 31 is_stmt 0 view .LVU104
 560 006c C0F86C21 		str	r2, [r0, #364]
 105:KiwiSynth/Patch/PatchSettings.cpp ****             case GEN_REVERB_SELECT:
 561              		.loc 5 105 17 is_stmt 1 view .LVU105
 562 0070 7047     		bx	lr
 563              	.L29:
 100:KiwiSynth/Patch/PatchSettings.cpp ****                 intValues[28] = value;
 564              		.loc 5 100 13 view .LVU106
 101:KiwiSynth/Patch/PatchSettings.cpp ****                 break;
 565              		.loc 5 101 17 view .LVU107
 101:KiwiSynth/Patch/PatchSettings.cpp ****                 break;
 566              		.loc 5 101 31 is_stmt 0 view .LVU108
 567 0072 C0F86821 		str	r2, [r0, #360]
 102:KiwiSynth/Patch/PatchSettings.cpp ****             case GEN_FX_SELECT:
 568              		.loc 5 102 17 is_stmt 1 view .LVU109
 569 0076 7047     		bx	lr
 570              	.L30:
  97:KiwiSynth/Patch/PatchSettings.cpp ****                 intValues[27] = value;
 571              		.loc 5 97 13 view .LVU110
  98:KiwiSynth/Patch/PatchSettings.cpp ****                 break;
 572              		.loc 5 98 17 view .LVU111
  98:KiwiSynth/Patch/PatchSettings.cpp ****                 break;
 573              		.loc 5 98 31 is_stmt 0 view .LVU112
 574 0078 C0F86421 		str	r2, [r0, #356]
  99:KiwiSynth/Patch/PatchSettings.cpp ****             case GEN_SELECT:
 575              		.loc 5 99 17 is_stmt 1 view .LVU113
 576 007c 7047     		bx	lr
 577              	.L31:
  94:KiwiSynth/Patch/PatchSettings.cpp ****                 intValues[26] = value;
 578              		.loc 5 94 13 view .LVU114
  95:KiwiSynth/Patch/PatchSettings.cpp ****                 break;
 579              		.loc 5 95 17 view .LVU115
  95:KiwiSynth/Patch/PatchSettings.cpp ****                 break;
 580              		.loc 5 95 31 is_stmt 0 view .LVU116
 581 007e C0F86021 		str	r2, [r0, #352]
  96:KiwiSynth/Patch/PatchSettings.cpp ****             case GEN_BALANCE:
 582              		.loc 5 96 17 is_stmt 1 view .LVU117
 583 0082 7047     		bx	lr
 584              	.L32:
  91:KiwiSynth/Patch/PatchSettings.cpp ****                 intValues[25] = value;
 585              		.loc 5 91 13 view .LVU118
  92:KiwiSynth/Patch/PatchSettings.cpp ****                 break;
ARM GAS  C:\Users\kenji\AppData\Local\Temp\cc5l7BVQ.s 			page 35


 586              		.loc 5 92 17 view .LVU119
  92:KiwiSynth/Patch/PatchSettings.cpp ****                 break;
 587              		.loc 5 92 31 is_stmt 0 view .LVU120
 588 0084 C0F85C21 		str	r2, [r0, #348]
  93:KiwiSynth/Patch/PatchSettings.cpp ****             case MOD_8_DESTINATION:
 589              		.loc 5 93 17 is_stmt 1 view .LVU121
 590 0088 7047     		bx	lr
 591              	.L33:
  88:KiwiSynth/Patch/PatchSettings.cpp ****                 intValues[24] = value;
 592              		.loc 5 88 13 view .LVU122
  89:KiwiSynth/Patch/PatchSettings.cpp ****                 break;
 593              		.loc 5 89 17 view .LVU123
  89:KiwiSynth/Patch/PatchSettings.cpp ****                 break;
 594              		.loc 5 89 31 is_stmt 0 view .LVU124
 595 008a C0F85821 		str	r2, [r0, #344]
  90:KiwiSynth/Patch/PatchSettings.cpp ****             case MOD_8_SOURCE:
 596              		.loc 5 90 17 is_stmt 1 view .LVU125
 597 008e 7047     		bx	lr
 598              	.L34:
  85:KiwiSynth/Patch/PatchSettings.cpp ****                 intValues[23] = value;
 599              		.loc 5 85 13 view .LVU126
  86:KiwiSynth/Patch/PatchSettings.cpp ****                 break;
 600              		.loc 5 86 17 view .LVU127
  86:KiwiSynth/Patch/PatchSettings.cpp ****                 break;
 601              		.loc 5 86 31 is_stmt 0 view .LVU128
 602 0090 C0F85421 		str	r2, [r0, #340]
  87:KiwiSynth/Patch/PatchSettings.cpp ****             case MOD_7_DESTINATION:
 603              		.loc 5 87 17 is_stmt 1 view .LVU129
 604 0094 7047     		bx	lr
 605              	.L35:
  82:KiwiSynth/Patch/PatchSettings.cpp ****                 intValues[22] = value;
 606              		.loc 5 82 13 view .LVU130
  83:KiwiSynth/Patch/PatchSettings.cpp ****                 break;
 607              		.loc 5 83 17 view .LVU131
  83:KiwiSynth/Patch/PatchSettings.cpp ****                 break;
 608              		.loc 5 83 31 is_stmt 0 view .LVU132
 609 0096 C0F85021 		str	r2, [r0, #336]
  84:KiwiSynth/Patch/PatchSettings.cpp ****             case MOD_7_SOURCE:
 610              		.loc 5 84 17 is_stmt 1 view .LVU133
 611 009a 7047     		bx	lr
 612              	.L36:
  79:KiwiSynth/Patch/PatchSettings.cpp ****                 intValues[21] = value;
 613              		.loc 5 79 13 view .LVU134
  80:KiwiSynth/Patch/PatchSettings.cpp ****                 break;
 614              		.loc 5 80 17 view .LVU135
  80:KiwiSynth/Patch/PatchSettings.cpp ****                 break;
 615              		.loc 5 80 31 is_stmt 0 view .LVU136
 616 009c C0F84C21 		str	r2, [r0, #332]
  81:KiwiSynth/Patch/PatchSettings.cpp ****             case MOD_6_DESTINATION:
 617              		.loc 5 81 17 is_stmt 1 view .LVU137
 618 00a0 7047     		bx	lr
 619              	.L37:
  76:KiwiSynth/Patch/PatchSettings.cpp ****                 intValues[20] = value;
 620              		.loc 5 76 13 view .LVU138
  77:KiwiSynth/Patch/PatchSettings.cpp ****                 break;
 621              		.loc 5 77 17 view .LVU139
  77:KiwiSynth/Patch/PatchSettings.cpp ****                 break;
ARM GAS  C:\Users\kenji\AppData\Local\Temp\cc5l7BVQ.s 			page 36


 622              		.loc 5 77 31 is_stmt 0 view .LVU140
 623 00a2 C0F84821 		str	r2, [r0, #328]
  78:KiwiSynth/Patch/PatchSettings.cpp ****             case MOD_6_SOURCE:
 624              		.loc 5 78 17 is_stmt 1 view .LVU141
 625 00a6 7047     		bx	lr
 626              	.L38:
  73:KiwiSynth/Patch/PatchSettings.cpp ****                 intValues[19] = value;
 627              		.loc 5 73 13 view .LVU142
  74:KiwiSynth/Patch/PatchSettings.cpp ****                 break;
 628              		.loc 5 74 17 view .LVU143
  74:KiwiSynth/Patch/PatchSettings.cpp ****                 break;
 629              		.loc 5 74 31 is_stmt 0 view .LVU144
 630 00a8 C0F84421 		str	r2, [r0, #324]
  75:KiwiSynth/Patch/PatchSettings.cpp ****             case MOD_5_DESTINATION:
 631              		.loc 5 75 17 is_stmt 1 view .LVU145
 632 00ac 7047     		bx	lr
 633              	.L39:
  70:KiwiSynth/Patch/PatchSettings.cpp ****                 intValues[18] = value;
 634              		.loc 5 70 13 view .LVU146
  71:KiwiSynth/Patch/PatchSettings.cpp ****                 break;
 635              		.loc 5 71 17 view .LVU147
  71:KiwiSynth/Patch/PatchSettings.cpp ****                 break;
 636              		.loc 5 71 31 is_stmt 0 view .LVU148
 637 00ae C0F84021 		str	r2, [r0, #320]
  72:KiwiSynth/Patch/PatchSettings.cpp ****             case MOD_5_SOURCE:
 638              		.loc 5 72 17 is_stmt 1 view .LVU149
 639 00b2 7047     		bx	lr
 640              	.L40:
  67:KiwiSynth/Patch/PatchSettings.cpp ****                 intValues[17] = value;
 641              		.loc 5 67 13 view .LVU150
  68:KiwiSynth/Patch/PatchSettings.cpp ****                 break;
 642              		.loc 5 68 17 view .LVU151
  68:KiwiSynth/Patch/PatchSettings.cpp ****                 break;
 643              		.loc 5 68 31 is_stmt 0 view .LVU152
 644 00b4 C0F83C21 		str	r2, [r0, #316]
  69:KiwiSynth/Patch/PatchSettings.cpp ****             case MOD_4_DESTINATION:
 645              		.loc 5 69 17 is_stmt 1 view .LVU153
 646 00b8 7047     		bx	lr
 647              	.L41:
  64:KiwiSynth/Patch/PatchSettings.cpp ****                 intValues[16] = value;
 648              		.loc 5 64 13 view .LVU154
  65:KiwiSynth/Patch/PatchSettings.cpp ****                 break;
 649              		.loc 5 65 17 view .LVU155
  65:KiwiSynth/Patch/PatchSettings.cpp ****                 break;
 650              		.loc 5 65 31 is_stmt 0 view .LVU156
 651 00ba C0F83821 		str	r2, [r0, #312]
  66:KiwiSynth/Patch/PatchSettings.cpp ****             case MOD_4_SOURCE:
 652              		.loc 5 66 17 is_stmt 1 view .LVU157
 653 00be 7047     		bx	lr
 654              	.L42:
  61:KiwiSynth/Patch/PatchSettings.cpp ****                 intValues[15] = value;
 655              		.loc 5 61 13 view .LVU158
  62:KiwiSynth/Patch/PatchSettings.cpp ****                 break;
 656              		.loc 5 62 17 view .LVU159
  62:KiwiSynth/Patch/PatchSettings.cpp ****                 break;
 657              		.loc 5 62 31 is_stmt 0 view .LVU160
 658 00c0 C0F83421 		str	r2, [r0, #308]
ARM GAS  C:\Users\kenji\AppData\Local\Temp\cc5l7BVQ.s 			page 37


  63:KiwiSynth/Patch/PatchSettings.cpp ****             case MOD_3_DESTINATION:
 659              		.loc 5 63 17 is_stmt 1 view .LVU161
 660 00c4 7047     		bx	lr
 661              	.L43:
  58:KiwiSynth/Patch/PatchSettings.cpp ****                 intValues[14] = value;
 662              		.loc 5 58 13 view .LVU162
  59:KiwiSynth/Patch/PatchSettings.cpp ****                 break;
 663              		.loc 5 59 17 view .LVU163
  59:KiwiSynth/Patch/PatchSettings.cpp ****                 break;
 664              		.loc 5 59 31 is_stmt 0 view .LVU164
 665 00c6 C0F83021 		str	r2, [r0, #304]
  60:KiwiSynth/Patch/PatchSettings.cpp ****             case MOD_3_SOURCE:
 666              		.loc 5 60 17 is_stmt 1 view .LVU165
 667 00ca 7047     		bx	lr
 668              	.L44:
  55:KiwiSynth/Patch/PatchSettings.cpp ****                 intValues[13] = value;
 669              		.loc 5 55 13 view .LVU166
  56:KiwiSynth/Patch/PatchSettings.cpp ****                 break;
 670              		.loc 5 56 17 view .LVU167
  56:KiwiSynth/Patch/PatchSettings.cpp ****                 break;
 671              		.loc 5 56 31 is_stmt 0 view .LVU168
 672 00cc C0F82C21 		str	r2, [r0, #300]
  57:KiwiSynth/Patch/PatchSettings.cpp ****             case MOD_2_DESTINATION:
 673              		.loc 5 57 17 is_stmt 1 view .LVU169
 674 00d0 7047     		bx	lr
 675              	.L45:
  52:KiwiSynth/Patch/PatchSettings.cpp ****                 intValues[12] = value;
 676              		.loc 5 52 13 view .LVU170
  53:KiwiSynth/Patch/PatchSettings.cpp ****                 break;
 677              		.loc 5 53 17 view .LVU171
  53:KiwiSynth/Patch/PatchSettings.cpp ****                 break;
 678              		.loc 5 53 31 is_stmt 0 view .LVU172
 679 00d2 C0F82821 		str	r2, [r0, #296]
  54:KiwiSynth/Patch/PatchSettings.cpp ****             case MOD_2_SOURCE:
 680              		.loc 5 54 17 is_stmt 1 view .LVU173
 681 00d6 7047     		bx	lr
 682              	.L46:
  49:KiwiSynth/Patch/PatchSettings.cpp ****                 intValues[11] = value;
 683              		.loc 5 49 13 view .LVU174
  50:KiwiSynth/Patch/PatchSettings.cpp ****                 break;
 684              		.loc 5 50 17 view .LVU175
  50:KiwiSynth/Patch/PatchSettings.cpp ****                 break;
 685              		.loc 5 50 31 is_stmt 0 view .LVU176
 686 00d8 C0F82421 		str	r2, [r0, #292]
  51:KiwiSynth/Patch/PatchSettings.cpp ****             case MOD_1_DESTINATION:
 687              		.loc 5 51 17 is_stmt 1 view .LVU177
 688 00dc 7047     		bx	lr
 689              	.L47:
  46:KiwiSynth/Patch/PatchSettings.cpp ****                 intValues[10] = value;
 690              		.loc 5 46 13 view .LVU178
  47:KiwiSynth/Patch/PatchSettings.cpp ****                 break;
 691              		.loc 5 47 17 view .LVU179
  47:KiwiSynth/Patch/PatchSettings.cpp ****                 break;
 692              		.loc 5 47 31 is_stmt 0 view .LVU180
 693 00de C0F82021 		str	r2, [r0, #288]
  48:KiwiSynth/Patch/PatchSettings.cpp ****             case MOD_1_SOURCE:
 694              		.loc 5 48 17 is_stmt 1 view .LVU181
ARM GAS  C:\Users\kenji\AppData\Local\Temp\cc5l7BVQ.s 			page 38


 695 00e2 7047     		bx	lr
 696              	.L48:
  43:KiwiSynth/Patch/PatchSettings.cpp ****                 intValues[9] = value;
 697              		.loc 5 43 13 view .LVU182
  44:KiwiSynth/Patch/PatchSettings.cpp ****                 break;
 698              		.loc 5 44 17 view .LVU183
  44:KiwiSynth/Patch/PatchSettings.cpp ****                 break;
 699              		.loc 5 44 30 is_stmt 0 view .LVU184
 700 00e4 C0F81C21 		str	r2, [r0, #284]
  45:KiwiSynth/Patch/PatchSettings.cpp ****             case LFO_2_WAVEFORM:
 701              		.loc 5 45 17 is_stmt 1 view .LVU185
 702 00e8 7047     		bx	lr
 703              	.L49:
  40:KiwiSynth/Patch/PatchSettings.cpp ****                 intValues[8] = value;
 704              		.loc 5 40 13 view .LVU186
  41:KiwiSynth/Patch/PatchSettings.cpp ****                 break;
 705              		.loc 5 41 17 view .LVU187
  41:KiwiSynth/Patch/PatchSettings.cpp ****                 break;
 706              		.loc 5 41 30 is_stmt 0 view .LVU188
 707 00ea C0F81821 		str	r2, [r0, #280]
  42:KiwiSynth/Patch/PatchSettings.cpp ****             case LFO_1_WAVEFORM:
 708              		.loc 5 42 17 is_stmt 1 view .LVU189
 709 00ee 7047     		bx	lr
 710              	.L50:
  37:KiwiSynth/Patch/PatchSettings.cpp ****                 intValues[7] = value;
 711              		.loc 5 37 13 view .LVU190
  38:KiwiSynth/Patch/PatchSettings.cpp ****                 break;
 712              		.loc 5 38 17 view .LVU191
  38:KiwiSynth/Patch/PatchSettings.cpp ****                 break;
 713              		.loc 5 38 30 is_stmt 0 view .LVU192
 714 00f0 C0F81421 		str	r2, [r0, #276]
  39:KiwiSynth/Patch/PatchSettings.cpp ****             case VCF_FILTER_TYPE:
 715              		.loc 5 39 17 is_stmt 1 view .LVU193
 716 00f4 7047     		bx	lr
 717              	.L51:
  34:KiwiSynth/Patch/PatchSettings.cpp ****                 intValues[6] = value;
 718              		.loc 5 34 13 view .LVU194
  35:KiwiSynth/Patch/PatchSettings.cpp ****                 break;
 719              		.loc 5 35 17 view .LVU195
  35:KiwiSynth/Patch/PatchSettings.cpp ****                 break;
 720              		.loc 5 35 30 is_stmt 0 view .LVU196
 721 00f6 C0F81021 		str	r2, [r0, #272]
  36:KiwiSynth/Patch/PatchSettings.cpp ****             case VCO_3_INTERVAL:
 722              		.loc 5 36 17 is_stmt 1 view .LVU197
 723 00fa 7047     		bx	lr
 724              	.L52:
  31:KiwiSynth/Patch/PatchSettings.cpp ****                 intValues[5] = value;
 725              		.loc 5 31 13 view .LVU198
  32:KiwiSynth/Patch/PatchSettings.cpp ****                 break;
 726              		.loc 5 32 17 view .LVU199
  32:KiwiSynth/Patch/PatchSettings.cpp ****                 break;
 727              		.loc 5 32 30 is_stmt 0 view .LVU200
 728 00fc C0F80C21 		str	r2, [r0, #268]
  33:KiwiSynth/Patch/PatchSettings.cpp ****             case VCO_3_OCTAVE:
 729              		.loc 5 33 17 is_stmt 1 view .LVU201
 730 0100 7047     		bx	lr
 731              	.L53:
ARM GAS  C:\Users\kenji\AppData\Local\Temp\cc5l7BVQ.s 			page 39


  28:KiwiSynth/Patch/PatchSettings.cpp ****                 intValues[4] = value;
 732              		.loc 5 28 13 view .LVU202
  29:KiwiSynth/Patch/PatchSettings.cpp ****                 break;
 733              		.loc 5 29 17 view .LVU203
  29:KiwiSynth/Patch/PatchSettings.cpp ****                 break;
 734              		.loc 5 29 30 is_stmt 0 view .LVU204
 735 0102 C0F80821 		str	r2, [r0, #264]
  30:KiwiSynth/Patch/PatchSettings.cpp ****             case VCO_3_WAVEFORM:
 736              		.loc 5 30 17 is_stmt 1 view .LVU205
 737 0106 7047     		bx	lr
 738              	.L54:
  25:KiwiSynth/Patch/PatchSettings.cpp ****                 intValues[3] = value;
 739              		.loc 5 25 13 view .LVU206
  26:KiwiSynth/Patch/PatchSettings.cpp ****                 break;
 740              		.loc 5 26 17 view .LVU207
  26:KiwiSynth/Patch/PatchSettings.cpp ****                 break;
 741              		.loc 5 26 30 is_stmt 0 view .LVU208
 742 0108 C0F80421 		str	r2, [r0, #260]
  27:KiwiSynth/Patch/PatchSettings.cpp ****             case VCO_2_INTERVAL:
 743              		.loc 5 27 17 is_stmt 1 view .LVU209
 744 010c 7047     		bx	lr
 745              	.L55:
  22:KiwiSynth/Patch/PatchSettings.cpp ****                 intValues[2] = value;
 746              		.loc 5 22 13 view .LVU210
  23:KiwiSynth/Patch/PatchSettings.cpp ****                 break;
 747              		.loc 5 23 17 view .LVU211
  23:KiwiSynth/Patch/PatchSettings.cpp ****                 break;
 748              		.loc 5 23 30 is_stmt 0 view .LVU212
 749 010e C0F80021 		str	r2, [r0, #256]
  24:KiwiSynth/Patch/PatchSettings.cpp ****             case VCO_2_OCTAVE:
 750              		.loc 5 24 17 is_stmt 1 view .LVU213
 751 0112 7047     		bx	lr
 752              	.L56:
  19:KiwiSynth/Patch/PatchSettings.cpp ****                 intValues[1] = value;
 753              		.loc 5 19 13 view .LVU214
  20:KiwiSynth/Patch/PatchSettings.cpp ****                 break;
 754              		.loc 5 20 17 view .LVU215
  20:KiwiSynth/Patch/PatchSettings.cpp ****                 break;
 755              		.loc 5 20 30 is_stmt 0 view .LVU216
 756 0114 C0F8FC20 		str	r2, [r0, #252]
  21:KiwiSynth/Patch/PatchSettings.cpp ****             case VCO_2_WAVEFORM:
 757              		.loc 5 21 17 is_stmt 1 view .LVU217
 758 0118 7047     		bx	lr
 759              	.L57:
  16:KiwiSynth/Patch/PatchSettings.cpp ****                 intValues[0] = value;
 760              		.loc 5 16 13 view .LVU218
  17:KiwiSynth/Patch/PatchSettings.cpp ****                 break;
 761              		.loc 5 17 17 view .LVU219
  17:KiwiSynth/Patch/PatchSettings.cpp ****                 break;
 762              		.loc 5 17 30 is_stmt 0 view .LVU220
 763 011a C0F8F820 		str	r2, [r0, #248]
  18:KiwiSynth/Patch/PatchSettings.cpp ****             case VCO_1_WAVEFORM:
 764              		.loc 5 18 17 is_stmt 1 view .LVU221
 765 011e 7047     		bx	lr
 766              		.cfi_endproc
 767              	.LFE3171:
 769              		.section	.text._ZN10kiwi_synth13PatchSettings8setValueENS_12PatchSettingEf,"ax",%progbits
ARM GAS  C:\Users\kenji\AppData\Local\Temp\cc5l7BVQ.s 			page 40


 770              		.align	1
 771              		.p2align 2,,3
 772              		.global	_ZN10kiwi_synth13PatchSettings8setValueENS_12PatchSettingEf
 773              		.syntax unified
 774              		.thumb
 775              		.thumb_func
 776              		.fpu fpv5-d16
 778              	_ZN10kiwi_synth13PatchSettings8setValueENS_12PatchSettingEf:
 779              	.LVL29:
 780              	.LFB3172:
 113:KiwiSynth/Patch/PatchSettings.cpp **** 
 114:KiwiSynth/Patch/PatchSettings.cpp **** 
 115:KiwiSynth/Patch/PatchSettings.cpp ****     void PatchSettings::setValue(PatchSetting setting, float value)
 116:KiwiSynth/Patch/PatchSettings.cpp ****     {
 781              		.loc 5 116 5 view -0
 782              		.cfi_startproc
 783              		@ args = 0, pretend = 0, frame = 0
 784              		@ frame_needed = 0, uses_anonymous_args = 0
 785              		@ link register save eliminated.
 117:KiwiSynth/Patch/PatchSettings.cpp ****         switch(setting) {
 786              		.loc 5 117 9 view .LVU223
 787 0000 0139     		subs	r1, r1, #1
 788              	.LVL30:
 789              		.loc 5 117 9 is_stmt 0 view .LVU224
 790 0002 5C29     		cmp	r1, #92
 791 0004 60D8     		bhi	.L58
 792 0006 DFE811F0 		tbh	[pc, r1, lsl #1]
 793              	.L61:
 794 000a FC00     		.2byte	(.L114-.L61)/2
 795 000c 5F00     		.2byte	(.L58-.L61)/2
 796 000e F900     		.2byte	(.L113-.L61)/2
 797 0010 5F00     		.2byte	(.L58-.L61)/2
 798 0012 F600     		.2byte	(.L112-.L61)/2
 799 0014 F300     		.2byte	(.L111-.L61)/2
 800 0016 5F00     		.2byte	(.L58-.L61)/2
 801 0018 5F00     		.2byte	(.L58-.L61)/2
 802 001a F000     		.2byte	(.L110-.L61)/2
 803 001c ED00     		.2byte	(.L109-.L61)/2
 804 001e 5F00     		.2byte	(.L58-.L61)/2
 805 0020 5F00     		.2byte	(.L58-.L61)/2
 806 0022 EA00     		.2byte	(.L108-.L61)/2
 807 0024 5F00     		.2byte	(.L58-.L61)/2
 808 0026 5F00     		.2byte	(.L58-.L61)/2
 809 0028 E700     		.2byte	(.L107-.L61)/2
 810 002a E400     		.2byte	(.L106-.L61)/2
 811 002c 5F00     		.2byte	(.L58-.L61)/2
 812 002e 5F00     		.2byte	(.L58-.L61)/2
 813 0030 E100     		.2byte	(.L105-.L61)/2
 814 0032 5F00     		.2byte	(.L58-.L61)/2
 815 0034 5F00     		.2byte	(.L58-.L61)/2
 816 0036 DE00     		.2byte	(.L104-.L61)/2
 817 0038 5F00     		.2byte	(.L58-.L61)/2
 818 003a DB00     		.2byte	(.L103-.L61)/2
 819 003c D800     		.2byte	(.L102-.L61)/2
 820 003e 5F00     		.2byte	(.L58-.L61)/2
 821 0040 D500     		.2byte	(.L101-.L61)/2
 822 0042 D200     		.2byte	(.L100-.L61)/2
ARM GAS  C:\Users\kenji\AppData\Local\Temp\cc5l7BVQ.s 			page 41


 823 0044 CF00     		.2byte	(.L99-.L61)/2
 824 0046 CC00     		.2byte	(.L98-.L61)/2
 825 0048 C900     		.2byte	(.L97-.L61)/2
 826 004a C600     		.2byte	(.L96-.L61)/2
 827 004c C300     		.2byte	(.L95-.L61)/2
 828 004e C000     		.2byte	(.L94-.L61)/2
 829 0050 BD00     		.2byte	(.L93-.L61)/2
 830 0052 BA00     		.2byte	(.L92-.L61)/2
 831 0054 B700     		.2byte	(.L91-.L61)/2
 832 0056 5F00     		.2byte	(.L58-.L61)/2
 833 0058 B400     		.2byte	(.L90-.L61)/2
 834 005a B100     		.2byte	(.L89-.L61)/2
 835 005c AE00     		.2byte	(.L88-.L61)/2
 836 005e AB00     		.2byte	(.L87-.L61)/2
 837 0060 5F00     		.2byte	(.L58-.L61)/2
 838 0062 5F00     		.2byte	(.L58-.L61)/2
 839 0064 A800     		.2byte	(.L86-.L61)/2
 840 0066 A500     		.2byte	(.L85-.L61)/2
 841 0068 5F00     		.2byte	(.L58-.L61)/2
 842 006a A200     		.2byte	(.L84-.L61)/2
 843 006c 9F00     		.2byte	(.L83-.L61)/2
 844 006e 5F00     		.2byte	(.L58-.L61)/2
 845 0070 9C00     		.2byte	(.L82-.L61)/2
 846 0072 9900     		.2byte	(.L81-.L61)/2
 847 0074 5F00     		.2byte	(.L58-.L61)/2
 848 0076 9600     		.2byte	(.L80-.L61)/2
 849 0078 9300     		.2byte	(.L79-.L61)/2
 850 007a 9000     		.2byte	(.L78-.L61)/2
 851 007c 8D00     		.2byte	(.L77-.L61)/2
 852 007e 5F00     		.2byte	(.L58-.L61)/2
 853 0080 5F00     		.2byte	(.L58-.L61)/2
 854 0082 8A00     		.2byte	(.L76-.L61)/2
 855 0084 5F00     		.2byte	(.L58-.L61)/2
 856 0086 5F00     		.2byte	(.L58-.L61)/2
 857 0088 8700     		.2byte	(.L75-.L61)/2
 858 008a 5F00     		.2byte	(.L58-.L61)/2
 859 008c 5F00     		.2byte	(.L58-.L61)/2
 860 008e 8400     		.2byte	(.L74-.L61)/2
 861 0090 5F00     		.2byte	(.L58-.L61)/2
 862 0092 5F00     		.2byte	(.L58-.L61)/2
 863 0094 8100     		.2byte	(.L73-.L61)/2
 864 0096 5F00     		.2byte	(.L58-.L61)/2
 865 0098 5F00     		.2byte	(.L58-.L61)/2
 866 009a 7E00     		.2byte	(.L72-.L61)/2
 867 009c 5F00     		.2byte	(.L58-.L61)/2
 868 009e 5F00     		.2byte	(.L58-.L61)/2
 869 00a0 7B00     		.2byte	(.L71-.L61)/2
 870 00a2 5F00     		.2byte	(.L58-.L61)/2
 871 00a4 5F00     		.2byte	(.L58-.L61)/2
 872 00a6 7800     		.2byte	(.L70-.L61)/2
 873 00a8 5F00     		.2byte	(.L58-.L61)/2
 874 00aa 5F00     		.2byte	(.L58-.L61)/2
 875 00ac 7500     		.2byte	(.L69-.L61)/2
 876 00ae 7200     		.2byte	(.L68-.L61)/2
 877 00b0 6F00     		.2byte	(.L67-.L61)/2
 878 00b2 6C00     		.2byte	(.L66-.L61)/2
 879 00b4 6900     		.2byte	(.L65-.L61)/2
ARM GAS  C:\Users\kenji\AppData\Local\Temp\cc5l7BVQ.s 			page 42


 880 00b6 6600     		.2byte	(.L64-.L61)/2
 881 00b8 6300     		.2byte	(.L63-.L61)/2
 882 00ba 6000     		.2byte	(.L62-.L61)/2
 883 00bc 5F00     		.2byte	(.L58-.L61)/2
 884 00be 5F00     		.2byte	(.L58-.L61)/2
 885 00c0 5F00     		.2byte	(.L58-.L61)/2
 886 00c2 5D00     		.2byte	(.L60-.L61)/2
 887              		.p2align 1
 888              	.L60:
 118:KiwiSynth/Patch/PatchSettings.cpp ****             case VCO_MASTER_TUNE:
 119:KiwiSynth/Patch/PatchSettings.cpp ****                 floatValues[0] = value;
 120:KiwiSynth/Patch/PatchSettings.cpp ****                 break;
 121:KiwiSynth/Patch/PatchSettings.cpp ****             case VCO_PORTAMENTO_SPEED:
 122:KiwiSynth/Patch/PatchSettings.cpp ****                 floatValues[1] = value;
 123:KiwiSynth/Patch/PatchSettings.cpp ****                 break;
 124:KiwiSynth/Patch/PatchSettings.cpp ****             case VCO_1_PULSE_WIDTH:
 125:KiwiSynth/Patch/PatchSettings.cpp ****                 floatValues[2] = value;
 126:KiwiSynth/Patch/PatchSettings.cpp ****                 break;
 127:KiwiSynth/Patch/PatchSettings.cpp ****             case VCO_1_LEVEL:
 128:KiwiSynth/Patch/PatchSettings.cpp ****                 floatValues[3] = value;
 129:KiwiSynth/Patch/PatchSettings.cpp ****                 break;
 130:KiwiSynth/Patch/PatchSettings.cpp ****             case VCO_2_PULSE_WIDTH:
 131:KiwiSynth/Patch/PatchSettings.cpp ****                 floatValues[4] = value;
 132:KiwiSynth/Patch/PatchSettings.cpp ****                 break;
 133:KiwiSynth/Patch/PatchSettings.cpp ****             case VCO_2_LEVEL:
 134:KiwiSynth/Patch/PatchSettings.cpp ****                 floatValues[5] = value;
 135:KiwiSynth/Patch/PatchSettings.cpp ****                 break;
 136:KiwiSynth/Patch/PatchSettings.cpp ****             case VCO_2_FINE_TUNE:
 137:KiwiSynth/Patch/PatchSettings.cpp ****                 floatValues[6] = value;
 138:KiwiSynth/Patch/PatchSettings.cpp ****                 break;
 139:KiwiSynth/Patch/PatchSettings.cpp ****             case VCO_3_PULSE_WIDTH:
 140:KiwiSynth/Patch/PatchSettings.cpp ****                 floatValues[7] = value;
 141:KiwiSynth/Patch/PatchSettings.cpp ****                 break;
 142:KiwiSynth/Patch/PatchSettings.cpp ****             case VCO_3_LEVEL:
 143:KiwiSynth/Patch/PatchSettings.cpp ****                 floatValues[8] = value;
 144:KiwiSynth/Patch/PatchSettings.cpp ****                 break;
 145:KiwiSynth/Patch/PatchSettings.cpp ****             case VCO_3_FINE_TUNE:
 146:KiwiSynth/Patch/PatchSettings.cpp ****                 floatValues[9] = value;
 147:KiwiSynth/Patch/PatchSettings.cpp ****                 break;
 148:KiwiSynth/Patch/PatchSettings.cpp ****             case VCO_NOISE_LEVEL:
 149:KiwiSynth/Patch/PatchSettings.cpp ****                 floatValues[10] = value;
 150:KiwiSynth/Patch/PatchSettings.cpp ****                 break;
 151:KiwiSynth/Patch/PatchSettings.cpp ****             case VCO_EXT_TRIGGER_GATE:
 152:KiwiSynth/Patch/PatchSettings.cpp ****                 floatValues[11] = value;
 153:KiwiSynth/Patch/PatchSettings.cpp ****                 break;
 154:KiwiSynth/Patch/PatchSettings.cpp ****             case VCO_EXT_LEVEL:
 155:KiwiSynth/Patch/PatchSettings.cpp ****                 floatValues[12] = value;
 156:KiwiSynth/Patch/PatchSettings.cpp ****                 break;
 157:KiwiSynth/Patch/PatchSettings.cpp ****             case VCF_CUTOFF:
 158:KiwiSynth/Patch/PatchSettings.cpp ****                 floatValues[13] = value;
 159:KiwiSynth/Patch/PatchSettings.cpp ****                 break;
 160:KiwiSynth/Patch/PatchSettings.cpp ****             case VCF_RESONANCE:
 161:KiwiSynth/Patch/PatchSettings.cpp ****                 floatValues[14] = value;
 162:KiwiSynth/Patch/PatchSettings.cpp ****                 break;
 163:KiwiSynth/Patch/PatchSettings.cpp ****             case VCF_TRACKING:
 164:KiwiSynth/Patch/PatchSettings.cpp ****                 floatValues[15] = value;
 165:KiwiSynth/Patch/PatchSettings.cpp ****                 break;
ARM GAS  C:\Users\kenji\AppData\Local\Temp\cc5l7BVQ.s 			page 43


 166:KiwiSynth/Patch/PatchSettings.cpp ****             case VCF_ENV_1_DEPTH:
 167:KiwiSynth/Patch/PatchSettings.cpp ****                 floatValues[16] = value;
 168:KiwiSynth/Patch/PatchSettings.cpp ****                 break;
 169:KiwiSynth/Patch/PatchSettings.cpp ****             case VCF_ENV_2_DEPTH:
 170:KiwiSynth/Patch/PatchSettings.cpp ****                 floatValues[17] = value;
 171:KiwiSynth/Patch/PatchSettings.cpp ****                 break;
 172:KiwiSynth/Patch/PatchSettings.cpp ****             case VCA_LEVEL:
 173:KiwiSynth/Patch/PatchSettings.cpp ****                 floatValues[18] = value;
 174:KiwiSynth/Patch/PatchSettings.cpp ****                 break;
 175:KiwiSynth/Patch/PatchSettings.cpp ****             case VCA_ENV_1_DEPTH:
 176:KiwiSynth/Patch/PatchSettings.cpp ****                 floatValues[19] = value;
 177:KiwiSynth/Patch/PatchSettings.cpp ****                 break;
 178:KiwiSynth/Patch/PatchSettings.cpp ****             case ENV_1_ATTACK:
 179:KiwiSynth/Patch/PatchSettings.cpp ****                 floatValues[20] = value;
 180:KiwiSynth/Patch/PatchSettings.cpp ****                 break;
 181:KiwiSynth/Patch/PatchSettings.cpp ****             case ENV_1_DECAY:
 182:KiwiSynth/Patch/PatchSettings.cpp ****                 floatValues[21] = value;
 183:KiwiSynth/Patch/PatchSettings.cpp ****                 break;
 184:KiwiSynth/Patch/PatchSettings.cpp ****             case ENV_1_SUSTAIN:
 185:KiwiSynth/Patch/PatchSettings.cpp ****                 floatValues[22] = value;
 186:KiwiSynth/Patch/PatchSettings.cpp ****                 break;
 187:KiwiSynth/Patch/PatchSettings.cpp ****             case ENV_1_RELEASE:
 188:KiwiSynth/Patch/PatchSettings.cpp ****                 floatValues[23] = value;
 189:KiwiSynth/Patch/PatchSettings.cpp ****                 break;
 190:KiwiSynth/Patch/PatchSettings.cpp ****             case ENV_2_ATTACK:
 191:KiwiSynth/Patch/PatchSettings.cpp ****                 floatValues[24] = value;
 192:KiwiSynth/Patch/PatchSettings.cpp ****                 break;
 193:KiwiSynth/Patch/PatchSettings.cpp ****             case ENV_2_DECAY:
 194:KiwiSynth/Patch/PatchSettings.cpp ****                 floatValues[25] = value;
 195:KiwiSynth/Patch/PatchSettings.cpp ****                 break;
 196:KiwiSynth/Patch/PatchSettings.cpp ****             case ENV_2_SUSTAIN:
 197:KiwiSynth/Patch/PatchSettings.cpp ****                 floatValues[26] = value;
 198:KiwiSynth/Patch/PatchSettings.cpp ****                 break;
 199:KiwiSynth/Patch/PatchSettings.cpp ****             case ENV_2_RELEASE:
 200:KiwiSynth/Patch/PatchSettings.cpp ****                 floatValues[27] = value;
 201:KiwiSynth/Patch/PatchSettings.cpp ****                 break;
 202:KiwiSynth/Patch/PatchSettings.cpp ****             case LFO_1_PULSE_WIDTH:
 203:KiwiSynth/Patch/PatchSettings.cpp ****                 floatValues[28] = value;
 204:KiwiSynth/Patch/PatchSettings.cpp ****                 break;
 205:KiwiSynth/Patch/PatchSettings.cpp ****             case LFO_1_RATE:
 206:KiwiSynth/Patch/PatchSettings.cpp ****                 floatValues[29] = value;
 207:KiwiSynth/Patch/PatchSettings.cpp ****                 break;
 208:KiwiSynth/Patch/PatchSettings.cpp ****             case LFO_1_TRIGGER_PHASE:
 209:KiwiSynth/Patch/PatchSettings.cpp ****                 floatValues[30] = value;
 210:KiwiSynth/Patch/PatchSettings.cpp ****                 break;
 211:KiwiSynth/Patch/PatchSettings.cpp ****             case LFO_1_TO_MASTER_TUNE:
 212:KiwiSynth/Patch/PatchSettings.cpp ****                 floatValues[31] = value;
 213:KiwiSynth/Patch/PatchSettings.cpp ****                 break;
 214:KiwiSynth/Patch/PatchSettings.cpp ****             case LFO_2_PULSE_WIDTH:
 215:KiwiSynth/Patch/PatchSettings.cpp ****                 floatValues[32] = value;
 216:KiwiSynth/Patch/PatchSettings.cpp ****                 break;
 217:KiwiSynth/Patch/PatchSettings.cpp ****             case LFO_2_RATE:
 218:KiwiSynth/Patch/PatchSettings.cpp ****                 floatValues[33] = value;
 219:KiwiSynth/Patch/PatchSettings.cpp ****                 break;
 220:KiwiSynth/Patch/PatchSettings.cpp ****             case LFO_2_TRIGGER_PHASE:
 221:KiwiSynth/Patch/PatchSettings.cpp ****                 floatValues[34] = value;
 222:KiwiSynth/Patch/PatchSettings.cpp ****                 break;
ARM GAS  C:\Users\kenji\AppData\Local\Temp\cc5l7BVQ.s 			page 44


 223:KiwiSynth/Patch/PatchSettings.cpp ****             case LFO_2_TO_VCF_CUTOFF:
 224:KiwiSynth/Patch/PatchSettings.cpp ****                 floatValues[35] = value;
 225:KiwiSynth/Patch/PatchSettings.cpp ****                 break;
 226:KiwiSynth/Patch/PatchSettings.cpp ****             case SH_LEVEL:
 227:KiwiSynth/Patch/PatchSettings.cpp ****                 floatValues[36] = value;
 228:KiwiSynth/Patch/PatchSettings.cpp ****                 break;
 229:KiwiSynth/Patch/PatchSettings.cpp ****             case SH_RATE:
 230:KiwiSynth/Patch/PatchSettings.cpp ****                 floatValues[37] = value;
 231:KiwiSynth/Patch/PatchSettings.cpp ****                 break;
 232:KiwiSynth/Patch/PatchSettings.cpp ****             case MOD_1_DEPTH:
 233:KiwiSynth/Patch/PatchSettings.cpp ****                 floatValues[38] = value;
 234:KiwiSynth/Patch/PatchSettings.cpp ****                 break;
 235:KiwiSynth/Patch/PatchSettings.cpp ****             case MOD_2_DEPTH:
 236:KiwiSynth/Patch/PatchSettings.cpp ****                 floatValues[39] = value;
 237:KiwiSynth/Patch/PatchSettings.cpp ****                 break;
 238:KiwiSynth/Patch/PatchSettings.cpp ****             case MOD_3_DEPTH:
 239:KiwiSynth/Patch/PatchSettings.cpp ****                 floatValues[40] = value;
 240:KiwiSynth/Patch/PatchSettings.cpp ****                 break;
 241:KiwiSynth/Patch/PatchSettings.cpp ****             case MOD_4_DEPTH:
 242:KiwiSynth/Patch/PatchSettings.cpp ****                 floatValues[41] = value;
 243:KiwiSynth/Patch/PatchSettings.cpp ****                 break;
 244:KiwiSynth/Patch/PatchSettings.cpp ****             case MOD_5_DEPTH:
 245:KiwiSynth/Patch/PatchSettings.cpp ****                 floatValues[42] = value;
 246:KiwiSynth/Patch/PatchSettings.cpp ****                 break;
 247:KiwiSynth/Patch/PatchSettings.cpp ****             case MOD_6_DEPTH:
 248:KiwiSynth/Patch/PatchSettings.cpp ****                 floatValues[43] = value;
 249:KiwiSynth/Patch/PatchSettings.cpp ****                 break;
 250:KiwiSynth/Patch/PatchSettings.cpp ****             case MOD_7_DEPTH:
 251:KiwiSynth/Patch/PatchSettings.cpp ****                 floatValues[44] = value;
 252:KiwiSynth/Patch/PatchSettings.cpp ****                 break;
 253:KiwiSynth/Patch/PatchSettings.cpp ****             case MOD_8_DEPTH:
 254:KiwiSynth/Patch/PatchSettings.cpp ****                 floatValues[45] = value;
 255:KiwiSynth/Patch/PatchSettings.cpp ****                 break;
 256:KiwiSynth/Patch/PatchSettings.cpp ****             case FX_1:
 257:KiwiSynth/Patch/PatchSettings.cpp ****                 floatValues[46] = value;
 258:KiwiSynth/Patch/PatchSettings.cpp ****                 break;
 259:KiwiSynth/Patch/PatchSettings.cpp ****             case FX_2:
 260:KiwiSynth/Patch/PatchSettings.cpp ****                 floatValues[47] = value;
 261:KiwiSynth/Patch/PatchSettings.cpp ****                 break;
 262:KiwiSynth/Patch/PatchSettings.cpp ****             case FX_3:
 263:KiwiSynth/Patch/PatchSettings.cpp ****                 floatValues[48] = value;
 264:KiwiSynth/Patch/PatchSettings.cpp ****                 break;
 265:KiwiSynth/Patch/PatchSettings.cpp ****             case FX_4:
 266:KiwiSynth/Patch/PatchSettings.cpp ****                 floatValues[49] = value;
 267:KiwiSynth/Patch/PatchSettings.cpp ****                 break;
 268:KiwiSynth/Patch/PatchSettings.cpp ****             case FX_5:
 269:KiwiSynth/Patch/PatchSettings.cpp ****                 floatValues[50] = value;
 270:KiwiSynth/Patch/PatchSettings.cpp ****                 break;
 271:KiwiSynth/Patch/PatchSettings.cpp ****             case FX_REVERB:
 272:KiwiSynth/Patch/PatchSettings.cpp ****                 floatValues[51] = value;
 273:KiwiSynth/Patch/PatchSettings.cpp ****                 break;
 274:KiwiSynth/Patch/PatchSettings.cpp ****             case GEN_BALANCE:
 275:KiwiSynth/Patch/PatchSettings.cpp ****                 floatValues[52] = value;
 276:KiwiSynth/Patch/PatchSettings.cpp ****                 break;
 277:KiwiSynth/Patch/PatchSettings.cpp ****             case GEN_REVERB_DECAY:
 889              		.loc 5 277 13 is_stmt 1 view .LVU225
 278:KiwiSynth/Patch/PatchSettings.cpp ****                 floatValues[53] = value;
ARM GAS  C:\Users\kenji\AppData\Local\Temp\cc5l7BVQ.s 			page 45


 890              		.loc 5 278 17 view .LVU226
 891              		.loc 5 278 33 is_stmt 0 view .LVU227
 892 00c4 80ED3D0A 		vstr.32	s0, [r0, #244]
 279:KiwiSynth/Patch/PatchSettings.cpp ****                 break;
 893              		.loc 5 279 17 is_stmt 1 view .LVU228
 894              	.L58:
 280:KiwiSynth/Patch/PatchSettings.cpp ****             default:
 281:KiwiSynth/Patch/PatchSettings.cpp ****                 break;
 282:KiwiSynth/Patch/PatchSettings.cpp ****         }
 283:KiwiSynth/Patch/PatchSettings.cpp ****     }
 895              		.loc 5 283 5 is_stmt 0 view .LVU229
 896 00c8 7047     		bx	lr
 897              	.L62:
 274:KiwiSynth/Patch/PatchSettings.cpp ****                 floatValues[52] = value;
 898              		.loc 5 274 13 is_stmt 1 view .LVU230
 275:KiwiSynth/Patch/PatchSettings.cpp ****                 break;
 899              		.loc 5 275 17 view .LVU231
 275:KiwiSynth/Patch/PatchSettings.cpp ****                 break;
 900              		.loc 5 275 33 is_stmt 0 view .LVU232
 901 00ca 80ED3C0A 		vstr.32	s0, [r0, #240]
 276:KiwiSynth/Patch/PatchSettings.cpp ****             case GEN_REVERB_DECAY:
 902              		.loc 5 276 17 is_stmt 1 view .LVU233
 903 00ce 7047     		bx	lr
 904              	.L63:
 271:KiwiSynth/Patch/PatchSettings.cpp ****                 floatValues[51] = value;
 905              		.loc 5 271 13 view .LVU234
 272:KiwiSynth/Patch/PatchSettings.cpp ****                 break;
 906              		.loc 5 272 17 view .LVU235
 272:KiwiSynth/Patch/PatchSettings.cpp ****                 break;
 907              		.loc 5 272 33 is_stmt 0 view .LVU236
 908 00d0 80ED3B0A 		vstr.32	s0, [r0, #236]
 273:KiwiSynth/Patch/PatchSettings.cpp ****             case GEN_BALANCE:
 909              		.loc 5 273 17 is_stmt 1 view .LVU237
 910 00d4 7047     		bx	lr
 911              	.L64:
 268:KiwiSynth/Patch/PatchSettings.cpp ****                 floatValues[50] = value;
 912              		.loc 5 268 13 view .LVU238
 269:KiwiSynth/Patch/PatchSettings.cpp ****                 break;
 913              		.loc 5 269 17 view .LVU239
 269:KiwiSynth/Patch/PatchSettings.cpp ****                 break;
 914              		.loc 5 269 33 is_stmt 0 view .LVU240
 915 00d6 80ED3A0A 		vstr.32	s0, [r0, #232]
 270:KiwiSynth/Patch/PatchSettings.cpp ****             case FX_REVERB:
 916              		.loc 5 270 17 is_stmt 1 view .LVU241
 917 00da 7047     		bx	lr
 918              	.L65:
 265:KiwiSynth/Patch/PatchSettings.cpp ****                 floatValues[49] = value;
 919              		.loc 5 265 13 view .LVU242
 266:KiwiSynth/Patch/PatchSettings.cpp ****                 break;
 920              		.loc 5 266 17 view .LVU243
 266:KiwiSynth/Patch/PatchSettings.cpp ****                 break;
 921              		.loc 5 266 33 is_stmt 0 view .LVU244
 922 00dc 80ED390A 		vstr.32	s0, [r0, #228]
 267:KiwiSynth/Patch/PatchSettings.cpp ****             case FX_5:
 923              		.loc 5 267 17 is_stmt 1 view .LVU245
 924 00e0 7047     		bx	lr
 925              	.L66:
ARM GAS  C:\Users\kenji\AppData\Local\Temp\cc5l7BVQ.s 			page 46


 262:KiwiSynth/Patch/PatchSettings.cpp ****                 floatValues[48] = value;
 926              		.loc 5 262 13 view .LVU246
 263:KiwiSynth/Patch/PatchSettings.cpp ****                 break;
 927              		.loc 5 263 17 view .LVU247
 263:KiwiSynth/Patch/PatchSettings.cpp ****                 break;
 928              		.loc 5 263 33 is_stmt 0 view .LVU248
 929 00e2 80ED380A 		vstr.32	s0, [r0, #224]
 264:KiwiSynth/Patch/PatchSettings.cpp ****             case FX_4:
 930              		.loc 5 264 17 is_stmt 1 view .LVU249
 931 00e6 7047     		bx	lr
 932              	.L67:
 259:KiwiSynth/Patch/PatchSettings.cpp ****                 floatValues[47] = value;
 933              		.loc 5 259 13 view .LVU250
 260:KiwiSynth/Patch/PatchSettings.cpp ****                 break;
 934              		.loc 5 260 17 view .LVU251
 260:KiwiSynth/Patch/PatchSettings.cpp ****                 break;
 935              		.loc 5 260 33 is_stmt 0 view .LVU252
 936 00e8 80ED370A 		vstr.32	s0, [r0, #220]
 261:KiwiSynth/Patch/PatchSettings.cpp ****             case FX_3:
 937              		.loc 5 261 17 is_stmt 1 view .LVU253
 938 00ec 7047     		bx	lr
 939              	.L68:
 256:KiwiSynth/Patch/PatchSettings.cpp ****                 floatValues[46] = value;
 940              		.loc 5 256 13 view .LVU254
 257:KiwiSynth/Patch/PatchSettings.cpp ****                 break;
 941              		.loc 5 257 17 view .LVU255
 257:KiwiSynth/Patch/PatchSettings.cpp ****                 break;
 942              		.loc 5 257 33 is_stmt 0 view .LVU256
 943 00ee 80ED360A 		vstr.32	s0, [r0, #216]
 258:KiwiSynth/Patch/PatchSettings.cpp ****             case FX_2:
 944              		.loc 5 258 17 is_stmt 1 view .LVU257
 945 00f2 7047     		bx	lr
 946              	.L69:
 253:KiwiSynth/Patch/PatchSettings.cpp ****                 floatValues[45] = value;
 947              		.loc 5 253 13 view .LVU258
 254:KiwiSynth/Patch/PatchSettings.cpp ****                 break;
 948              		.loc 5 254 17 view .LVU259
 254:KiwiSynth/Patch/PatchSettings.cpp ****                 break;
 949              		.loc 5 254 33 is_stmt 0 view .LVU260
 950 00f4 80ED350A 		vstr.32	s0, [r0, #212]
 255:KiwiSynth/Patch/PatchSettings.cpp ****             case FX_1:
 951              		.loc 5 255 17 is_stmt 1 view .LVU261
 952 00f8 7047     		bx	lr
 953              	.L70:
 250:KiwiSynth/Patch/PatchSettings.cpp ****                 floatValues[44] = value;
 954              		.loc 5 250 13 view .LVU262
 251:KiwiSynth/Patch/PatchSettings.cpp ****                 break;
 955              		.loc 5 251 17 view .LVU263
 251:KiwiSynth/Patch/PatchSettings.cpp ****                 break;
 956              		.loc 5 251 33 is_stmt 0 view .LVU264
 957 00fa 80ED340A 		vstr.32	s0, [r0, #208]
 252:KiwiSynth/Patch/PatchSettings.cpp ****             case MOD_8_DEPTH:
 958              		.loc 5 252 17 is_stmt 1 view .LVU265
 959 00fe 7047     		bx	lr
 960              	.L71:
 247:KiwiSynth/Patch/PatchSettings.cpp ****                 floatValues[43] = value;
 961              		.loc 5 247 13 view .LVU266
ARM GAS  C:\Users\kenji\AppData\Local\Temp\cc5l7BVQ.s 			page 47


 248:KiwiSynth/Patch/PatchSettings.cpp ****                 break;
 962              		.loc 5 248 17 view .LVU267
 248:KiwiSynth/Patch/PatchSettings.cpp ****                 break;
 963              		.loc 5 248 33 is_stmt 0 view .LVU268
 964 0100 80ED330A 		vstr.32	s0, [r0, #204]
 249:KiwiSynth/Patch/PatchSettings.cpp ****             case MOD_7_DEPTH:
 965              		.loc 5 249 17 is_stmt 1 view .LVU269
 966 0104 7047     		bx	lr
 967              	.L72:
 244:KiwiSynth/Patch/PatchSettings.cpp ****                 floatValues[42] = value;
 968              		.loc 5 244 13 view .LVU270
 245:KiwiSynth/Patch/PatchSettings.cpp ****                 break;
 969              		.loc 5 245 17 view .LVU271
 245:KiwiSynth/Patch/PatchSettings.cpp ****                 break;
 970              		.loc 5 245 33 is_stmt 0 view .LVU272
 971 0106 80ED320A 		vstr.32	s0, [r0, #200]
 246:KiwiSynth/Patch/PatchSettings.cpp ****             case MOD_6_DEPTH:
 972              		.loc 5 246 17 is_stmt 1 view .LVU273
 973 010a 7047     		bx	lr
 974              	.L73:
 241:KiwiSynth/Patch/PatchSettings.cpp ****                 floatValues[41] = value;
 975              		.loc 5 241 13 view .LVU274
 242:KiwiSynth/Patch/PatchSettings.cpp ****                 break;
 976              		.loc 5 242 17 view .LVU275
 242:KiwiSynth/Patch/PatchSettings.cpp ****                 break;
 977              		.loc 5 242 33 is_stmt 0 view .LVU276
 978 010c 80ED310A 		vstr.32	s0, [r0, #196]
 243:KiwiSynth/Patch/PatchSettings.cpp ****             case MOD_5_DEPTH:
 979              		.loc 5 243 17 is_stmt 1 view .LVU277
 980 0110 7047     		bx	lr
 981              	.L74:
 238:KiwiSynth/Patch/PatchSettings.cpp ****                 floatValues[40] = value;
 982              		.loc 5 238 13 view .LVU278
 239:KiwiSynth/Patch/PatchSettings.cpp ****                 break;
 983              		.loc 5 239 17 view .LVU279
 239:KiwiSynth/Patch/PatchSettings.cpp ****                 break;
 984              		.loc 5 239 33 is_stmt 0 view .LVU280
 985 0112 80ED300A 		vstr.32	s0, [r0, #192]
 240:KiwiSynth/Patch/PatchSettings.cpp ****             case MOD_4_DEPTH:
 986              		.loc 5 240 17 is_stmt 1 view .LVU281
 987 0116 7047     		bx	lr
 988              	.L75:
 235:KiwiSynth/Patch/PatchSettings.cpp ****                 floatValues[39] = value;
 989              		.loc 5 235 13 view .LVU282
 236:KiwiSynth/Patch/PatchSettings.cpp ****                 break;
 990              		.loc 5 236 17 view .LVU283
 236:KiwiSynth/Patch/PatchSettings.cpp ****                 break;
 991              		.loc 5 236 33 is_stmt 0 view .LVU284
 992 0118 80ED2F0A 		vstr.32	s0, [r0, #188]
 237:KiwiSynth/Patch/PatchSettings.cpp ****             case MOD_3_DEPTH:
 993              		.loc 5 237 17 is_stmt 1 view .LVU285
 994 011c 7047     		bx	lr
 995              	.L76:
 232:KiwiSynth/Patch/PatchSettings.cpp ****                 floatValues[38] = value;
 996              		.loc 5 232 13 view .LVU286
 233:KiwiSynth/Patch/PatchSettings.cpp ****                 break;
 997              		.loc 5 233 17 view .LVU287
ARM GAS  C:\Users\kenji\AppData\Local\Temp\cc5l7BVQ.s 			page 48


 233:KiwiSynth/Patch/PatchSettings.cpp ****                 break;
 998              		.loc 5 233 33 is_stmt 0 view .LVU288
 999 011e 80ED2E0A 		vstr.32	s0, [r0, #184]
 234:KiwiSynth/Patch/PatchSettings.cpp ****             case MOD_2_DEPTH:
 1000              		.loc 5 234 17 is_stmt 1 view .LVU289
 1001 0122 7047     		bx	lr
 1002              	.L77:
 229:KiwiSynth/Patch/PatchSettings.cpp ****                 floatValues[37] = value;
 1003              		.loc 5 229 13 view .LVU290
 230:KiwiSynth/Patch/PatchSettings.cpp ****                 break;
 1004              		.loc 5 230 17 view .LVU291
 230:KiwiSynth/Patch/PatchSettings.cpp ****                 break;
 1005              		.loc 5 230 33 is_stmt 0 view .LVU292
 1006 0124 80ED2D0A 		vstr.32	s0, [r0, #180]
 231:KiwiSynth/Patch/PatchSettings.cpp ****             case MOD_1_DEPTH:
 1007              		.loc 5 231 17 is_stmt 1 view .LVU293
 1008 0128 7047     		bx	lr
 1009              	.L78:
 226:KiwiSynth/Patch/PatchSettings.cpp ****                 floatValues[36] = value;
 1010              		.loc 5 226 13 view .LVU294
 227:KiwiSynth/Patch/PatchSettings.cpp ****                 break;
 1011              		.loc 5 227 17 view .LVU295
 227:KiwiSynth/Patch/PatchSettings.cpp ****                 break;
 1012              		.loc 5 227 33 is_stmt 0 view .LVU296
 1013 012a 80ED2C0A 		vstr.32	s0, [r0, #176]
 228:KiwiSynth/Patch/PatchSettings.cpp ****             case SH_RATE:
 1014              		.loc 5 228 17 is_stmt 1 view .LVU297
 1015 012e 7047     		bx	lr
 1016              	.L79:
 223:KiwiSynth/Patch/PatchSettings.cpp ****                 floatValues[35] = value;
 1017              		.loc 5 223 13 view .LVU298
 224:KiwiSynth/Patch/PatchSettings.cpp ****                 break;
 1018              		.loc 5 224 17 view .LVU299
 224:KiwiSynth/Patch/PatchSettings.cpp ****                 break;
 1019              		.loc 5 224 33 is_stmt 0 view .LVU300
 1020 0130 80ED2B0A 		vstr.32	s0, [r0, #172]
 225:KiwiSynth/Patch/PatchSettings.cpp ****             case SH_LEVEL:
 1021              		.loc 5 225 17 is_stmt 1 view .LVU301
 1022 0134 7047     		bx	lr
 1023              	.L80:
 220:KiwiSynth/Patch/PatchSettings.cpp ****                 floatValues[34] = value;
 1024              		.loc 5 220 13 view .LVU302
 221:KiwiSynth/Patch/PatchSettings.cpp ****                 break;
 1025              		.loc 5 221 17 view .LVU303
 221:KiwiSynth/Patch/PatchSettings.cpp ****                 break;
 1026              		.loc 5 221 33 is_stmt 0 view .LVU304
 1027 0136 80ED2A0A 		vstr.32	s0, [r0, #168]
 222:KiwiSynth/Patch/PatchSettings.cpp ****             case LFO_2_TO_VCF_CUTOFF:
 1028              		.loc 5 222 17 is_stmt 1 view .LVU305
 1029 013a 7047     		bx	lr
 1030              	.L81:
 217:KiwiSynth/Patch/PatchSettings.cpp ****                 floatValues[33] = value;
 1031              		.loc 5 217 13 view .LVU306
 218:KiwiSynth/Patch/PatchSettings.cpp ****                 break;
 1032              		.loc 5 218 17 view .LVU307
 218:KiwiSynth/Patch/PatchSettings.cpp ****                 break;
 1033              		.loc 5 218 33 is_stmt 0 view .LVU308
ARM GAS  C:\Users\kenji\AppData\Local\Temp\cc5l7BVQ.s 			page 49


 1034 013c 80ED290A 		vstr.32	s0, [r0, #164]
 219:KiwiSynth/Patch/PatchSettings.cpp ****             case LFO_2_TRIGGER_PHASE:
 1035              		.loc 5 219 17 is_stmt 1 view .LVU309
 1036 0140 7047     		bx	lr
 1037              	.L82:
 214:KiwiSynth/Patch/PatchSettings.cpp ****                 floatValues[32] = value;
 1038              		.loc 5 214 13 view .LVU310
 215:KiwiSynth/Patch/PatchSettings.cpp ****                 break;
 1039              		.loc 5 215 17 view .LVU311
 215:KiwiSynth/Patch/PatchSettings.cpp ****                 break;
 1040              		.loc 5 215 33 is_stmt 0 view .LVU312
 1041 0142 80ED280A 		vstr.32	s0, [r0, #160]
 216:KiwiSynth/Patch/PatchSettings.cpp ****             case LFO_2_RATE:
 1042              		.loc 5 216 17 is_stmt 1 view .LVU313
 1043 0146 7047     		bx	lr
 1044              	.L83:
 211:KiwiSynth/Patch/PatchSettings.cpp ****                 floatValues[31] = value;
 1045              		.loc 5 211 13 view .LVU314
 212:KiwiSynth/Patch/PatchSettings.cpp ****                 break;
 1046              		.loc 5 212 17 view .LVU315
 212:KiwiSynth/Patch/PatchSettings.cpp ****                 break;
 1047              		.loc 5 212 33 is_stmt 0 view .LVU316
 1048 0148 80ED270A 		vstr.32	s0, [r0, #156]
 213:KiwiSynth/Patch/PatchSettings.cpp ****             case LFO_2_PULSE_WIDTH:
 1049              		.loc 5 213 17 is_stmt 1 view .LVU317
 1050 014c 7047     		bx	lr
 1051              	.L84:
 208:KiwiSynth/Patch/PatchSettings.cpp ****                 floatValues[30] = value;
 1052              		.loc 5 208 13 view .LVU318
 209:KiwiSynth/Patch/PatchSettings.cpp ****                 break;
 1053              		.loc 5 209 17 view .LVU319
 209:KiwiSynth/Patch/PatchSettings.cpp ****                 break;
 1054              		.loc 5 209 33 is_stmt 0 view .LVU320
 1055 014e 80ED260A 		vstr.32	s0, [r0, #152]
 210:KiwiSynth/Patch/PatchSettings.cpp ****             case LFO_1_TO_MASTER_TUNE:
 1056              		.loc 5 210 17 is_stmt 1 view .LVU321
 1057 0152 7047     		bx	lr
 1058              	.L85:
 205:KiwiSynth/Patch/PatchSettings.cpp ****                 floatValues[29] = value;
 1059              		.loc 5 205 13 view .LVU322
 206:KiwiSynth/Patch/PatchSettings.cpp ****                 break;
 1060              		.loc 5 206 17 view .LVU323
 206:KiwiSynth/Patch/PatchSettings.cpp ****                 break;
 1061              		.loc 5 206 33 is_stmt 0 view .LVU324
 1062 0154 80ED250A 		vstr.32	s0, [r0, #148]
 207:KiwiSynth/Patch/PatchSettings.cpp ****             case LFO_1_TRIGGER_PHASE:
 1063              		.loc 5 207 17 is_stmt 1 view .LVU325
 1064 0158 7047     		bx	lr
 1065              	.L86:
 202:KiwiSynth/Patch/PatchSettings.cpp ****                 floatValues[28] = value;
 1066              		.loc 5 202 13 view .LVU326
 203:KiwiSynth/Patch/PatchSettings.cpp ****                 break;
 1067              		.loc 5 203 17 view .LVU327
 203:KiwiSynth/Patch/PatchSettings.cpp ****                 break;
 1068              		.loc 5 203 33 is_stmt 0 view .LVU328
 1069 015a 80ED240A 		vstr.32	s0, [r0, #144]
 204:KiwiSynth/Patch/PatchSettings.cpp ****             case LFO_1_RATE:
ARM GAS  C:\Users\kenji\AppData\Local\Temp\cc5l7BVQ.s 			page 50


 1070              		.loc 5 204 17 is_stmt 1 view .LVU329
 1071 015e 7047     		bx	lr
 1072              	.L87:
 199:KiwiSynth/Patch/PatchSettings.cpp ****                 floatValues[27] = value;
 1073              		.loc 5 199 13 view .LVU330
 200:KiwiSynth/Patch/PatchSettings.cpp ****                 break;
 1074              		.loc 5 200 17 view .LVU331
 200:KiwiSynth/Patch/PatchSettings.cpp ****                 break;
 1075              		.loc 5 200 33 is_stmt 0 view .LVU332
 1076 0160 80ED230A 		vstr.32	s0, [r0, #140]
 201:KiwiSynth/Patch/PatchSettings.cpp ****             case LFO_1_PULSE_WIDTH:
 1077              		.loc 5 201 17 is_stmt 1 view .LVU333
 1078 0164 7047     		bx	lr
 1079              	.L88:
 196:KiwiSynth/Patch/PatchSettings.cpp ****                 floatValues[26] = value;
 1080              		.loc 5 196 13 view .LVU334
 197:KiwiSynth/Patch/PatchSettings.cpp ****                 break;
 1081              		.loc 5 197 17 view .LVU335
 197:KiwiSynth/Patch/PatchSettings.cpp ****                 break;
 1082              		.loc 5 197 33 is_stmt 0 view .LVU336
 1083 0166 80ED220A 		vstr.32	s0, [r0, #136]
 198:KiwiSynth/Patch/PatchSettings.cpp ****             case ENV_2_RELEASE:
 1084              		.loc 5 198 17 is_stmt 1 view .LVU337
 1085 016a 7047     		bx	lr
 1086              	.L89:
 193:KiwiSynth/Patch/PatchSettings.cpp ****                 floatValues[25] = value;
 1087              		.loc 5 193 13 view .LVU338
 194:KiwiSynth/Patch/PatchSettings.cpp ****                 break;
 1088              		.loc 5 194 17 view .LVU339
 194:KiwiSynth/Patch/PatchSettings.cpp ****                 break;
 1089              		.loc 5 194 33 is_stmt 0 view .LVU340
 1090 016c 80ED210A 		vstr.32	s0, [r0, #132]
 195:KiwiSynth/Patch/PatchSettings.cpp ****             case ENV_2_SUSTAIN:
 1091              		.loc 5 195 17 is_stmt 1 view .LVU341
 1092 0170 7047     		bx	lr
 1093              	.L90:
 190:KiwiSynth/Patch/PatchSettings.cpp ****                 floatValues[24] = value;
 1094              		.loc 5 190 13 view .LVU342
 191:KiwiSynth/Patch/PatchSettings.cpp ****                 break;
 1095              		.loc 5 191 17 view .LVU343
 191:KiwiSynth/Patch/PatchSettings.cpp ****                 break;
 1096              		.loc 5 191 33 is_stmt 0 view .LVU344
 1097 0172 80ED200A 		vstr.32	s0, [r0, #128]
 192:KiwiSynth/Patch/PatchSettings.cpp ****             case ENV_2_DECAY:
 1098              		.loc 5 192 17 is_stmt 1 view .LVU345
 1099 0176 7047     		bx	lr
 1100              	.L91:
 187:KiwiSynth/Patch/PatchSettings.cpp ****                 floatValues[23] = value;
 1101              		.loc 5 187 13 view .LVU346
 188:KiwiSynth/Patch/PatchSettings.cpp ****                 break;
 1102              		.loc 5 188 17 view .LVU347
 188:KiwiSynth/Patch/PatchSettings.cpp ****                 break;
 1103              		.loc 5 188 33 is_stmt 0 view .LVU348
 1104 0178 80ED1F0A 		vstr.32	s0, [r0, #124]
 189:KiwiSynth/Patch/PatchSettings.cpp ****             case ENV_2_ATTACK:
 1105              		.loc 5 189 17 is_stmt 1 view .LVU349
 1106 017c 7047     		bx	lr
ARM GAS  C:\Users\kenji\AppData\Local\Temp\cc5l7BVQ.s 			page 51


 1107              	.L92:
 184:KiwiSynth/Patch/PatchSettings.cpp ****                 floatValues[22] = value;
 1108              		.loc 5 184 13 view .LVU350
 185:KiwiSynth/Patch/PatchSettings.cpp ****                 break;
 1109              		.loc 5 185 17 view .LVU351
 185:KiwiSynth/Patch/PatchSettings.cpp ****                 break;
 1110              		.loc 5 185 33 is_stmt 0 view .LVU352
 1111 017e 80ED1E0A 		vstr.32	s0, [r0, #120]
 186:KiwiSynth/Patch/PatchSettings.cpp ****             case ENV_1_RELEASE:
 1112              		.loc 5 186 17 is_stmt 1 view .LVU353
 1113 0182 7047     		bx	lr
 1114              	.L93:
 181:KiwiSynth/Patch/PatchSettings.cpp ****                 floatValues[21] = value;
 1115              		.loc 5 181 13 view .LVU354
 182:KiwiSynth/Patch/PatchSettings.cpp ****                 break;
 1116              		.loc 5 182 17 view .LVU355
 182:KiwiSynth/Patch/PatchSettings.cpp ****                 break;
 1117              		.loc 5 182 33 is_stmt 0 view .LVU356
 1118 0184 80ED1D0A 		vstr.32	s0, [r0, #116]
 183:KiwiSynth/Patch/PatchSettings.cpp ****             case ENV_1_SUSTAIN:
 1119              		.loc 5 183 17 is_stmt 1 view .LVU357
 1120 0188 7047     		bx	lr
 1121              	.L94:
 178:KiwiSynth/Patch/PatchSettings.cpp ****                 floatValues[20] = value;
 1122              		.loc 5 178 13 view .LVU358
 179:KiwiSynth/Patch/PatchSettings.cpp ****                 break;
 1123              		.loc 5 179 17 view .LVU359
 179:KiwiSynth/Patch/PatchSettings.cpp ****                 break;
 1124              		.loc 5 179 33 is_stmt 0 view .LVU360
 1125 018a 80ED1C0A 		vstr.32	s0, [r0, #112]
 180:KiwiSynth/Patch/PatchSettings.cpp ****             case ENV_1_DECAY:
 1126              		.loc 5 180 17 is_stmt 1 view .LVU361
 1127 018e 7047     		bx	lr
 1128              	.L95:
 175:KiwiSynth/Patch/PatchSettings.cpp ****                 floatValues[19] = value;
 1129              		.loc 5 175 13 view .LVU362
 176:KiwiSynth/Patch/PatchSettings.cpp ****                 break;
 1130              		.loc 5 176 17 view .LVU363
 176:KiwiSynth/Patch/PatchSettings.cpp ****                 break;
 1131              		.loc 5 176 33 is_stmt 0 view .LVU364
 1132 0190 80ED1B0A 		vstr.32	s0, [r0, #108]
 177:KiwiSynth/Patch/PatchSettings.cpp ****             case ENV_1_ATTACK:
 1133              		.loc 5 177 17 is_stmt 1 view .LVU365
 1134 0194 7047     		bx	lr
 1135              	.L96:
 172:KiwiSynth/Patch/PatchSettings.cpp ****                 floatValues[18] = value;
 1136              		.loc 5 172 13 view .LVU366
 173:KiwiSynth/Patch/PatchSettings.cpp ****                 break;
 1137              		.loc 5 173 17 view .LVU367
 173:KiwiSynth/Patch/PatchSettings.cpp ****                 break;
 1138              		.loc 5 173 33 is_stmt 0 view .LVU368
 1139 0196 80ED1A0A 		vstr.32	s0, [r0, #104]
 174:KiwiSynth/Patch/PatchSettings.cpp ****             case VCA_ENV_1_DEPTH:
 1140              		.loc 5 174 17 is_stmt 1 view .LVU369
 1141 019a 7047     		bx	lr
 1142              	.L97:
 169:KiwiSynth/Patch/PatchSettings.cpp ****                 floatValues[17] = value;
ARM GAS  C:\Users\kenji\AppData\Local\Temp\cc5l7BVQ.s 			page 52


 1143              		.loc 5 169 13 view .LVU370
 170:KiwiSynth/Patch/PatchSettings.cpp ****                 break;
 1144              		.loc 5 170 17 view .LVU371
 170:KiwiSynth/Patch/PatchSettings.cpp ****                 break;
 1145              		.loc 5 170 33 is_stmt 0 view .LVU372
 1146 019c 80ED190A 		vstr.32	s0, [r0, #100]
 171:KiwiSynth/Patch/PatchSettings.cpp ****             case VCA_LEVEL:
 1147              		.loc 5 171 17 is_stmt 1 view .LVU373
 1148 01a0 7047     		bx	lr
 1149              	.L98:
 166:KiwiSynth/Patch/PatchSettings.cpp ****                 floatValues[16] = value;
 1150              		.loc 5 166 13 view .LVU374
 167:KiwiSynth/Patch/PatchSettings.cpp ****                 break;
 1151              		.loc 5 167 17 view .LVU375
 167:KiwiSynth/Patch/PatchSettings.cpp ****                 break;
 1152              		.loc 5 167 33 is_stmt 0 view .LVU376
 1153 01a2 80ED180A 		vstr.32	s0, [r0, #96]
 168:KiwiSynth/Patch/PatchSettings.cpp ****             case VCF_ENV_2_DEPTH:
 1154              		.loc 5 168 17 is_stmt 1 view .LVU377
 1155 01a6 7047     		bx	lr
 1156              	.L99:
 163:KiwiSynth/Patch/PatchSettings.cpp ****                 floatValues[15] = value;
 1157              		.loc 5 163 13 view .LVU378
 164:KiwiSynth/Patch/PatchSettings.cpp ****                 break;
 1158              		.loc 5 164 17 view .LVU379
 164:KiwiSynth/Patch/PatchSettings.cpp ****                 break;
 1159              		.loc 5 164 33 is_stmt 0 view .LVU380
 1160 01a8 80ED170A 		vstr.32	s0, [r0, #92]
 165:KiwiSynth/Patch/PatchSettings.cpp ****             case VCF_ENV_1_DEPTH:
 1161              		.loc 5 165 17 is_stmt 1 view .LVU381
 1162 01ac 7047     		bx	lr
 1163              	.L100:
 160:KiwiSynth/Patch/PatchSettings.cpp ****                 floatValues[14] = value;
 1164              		.loc 5 160 13 view .LVU382
 161:KiwiSynth/Patch/PatchSettings.cpp ****                 break;
 1165              		.loc 5 161 17 view .LVU383
 161:KiwiSynth/Patch/PatchSettings.cpp ****                 break;
 1166              		.loc 5 161 33 is_stmt 0 view .LVU384
 1167 01ae 80ED160A 		vstr.32	s0, [r0, #88]
 162:KiwiSynth/Patch/PatchSettings.cpp ****             case VCF_TRACKING:
 1168              		.loc 5 162 17 is_stmt 1 view .LVU385
 1169 01b2 7047     		bx	lr
 1170              	.L101:
 157:KiwiSynth/Patch/PatchSettings.cpp ****                 floatValues[13] = value;
 1171              		.loc 5 157 13 view .LVU386
 158:KiwiSynth/Patch/PatchSettings.cpp ****                 break;
 1172              		.loc 5 158 17 view .LVU387
 158:KiwiSynth/Patch/PatchSettings.cpp ****                 break;
 1173              		.loc 5 158 33 is_stmt 0 view .LVU388
 1174 01b4 80ED150A 		vstr.32	s0, [r0, #84]
 159:KiwiSynth/Patch/PatchSettings.cpp ****             case VCF_RESONANCE:
 1175              		.loc 5 159 17 is_stmt 1 view .LVU389
 1176 01b8 7047     		bx	lr
 1177              	.L102:
 154:KiwiSynth/Patch/PatchSettings.cpp ****                 floatValues[12] = value;
 1178              		.loc 5 154 13 view .LVU390
 155:KiwiSynth/Patch/PatchSettings.cpp ****                 break;
ARM GAS  C:\Users\kenji\AppData\Local\Temp\cc5l7BVQ.s 			page 53


 1179              		.loc 5 155 17 view .LVU391
 155:KiwiSynth/Patch/PatchSettings.cpp ****                 break;
 1180              		.loc 5 155 33 is_stmt 0 view .LVU392
 1181 01ba 80ED140A 		vstr.32	s0, [r0, #80]
 156:KiwiSynth/Patch/PatchSettings.cpp ****             case VCF_CUTOFF:
 1182              		.loc 5 156 17 is_stmt 1 view .LVU393
 1183 01be 7047     		bx	lr
 1184              	.L103:
 151:KiwiSynth/Patch/PatchSettings.cpp ****                 floatValues[11] = value;
 1185              		.loc 5 151 13 view .LVU394
 152:KiwiSynth/Patch/PatchSettings.cpp ****                 break;
 1186              		.loc 5 152 17 view .LVU395
 152:KiwiSynth/Patch/PatchSettings.cpp ****                 break;
